   1                             		.file	"inthandler.c"
   2                             		.section P,"ax"
   3                             	.Ltext0:
   4                             		.section	.text.INT_Excep_SuperVisorInst,"ax",@progbits
   5                             		.global	_INT_Excep_SuperVisorInst
   7                             	_INT_Excep_SuperVisorInst:
   8                             	.LFB0:
   9                             		.file 1 "../generate/inthandler.c"
   1:../generate/inthandler.c **** /************************************************************************/
   2:../generate/inthandler.c **** /*    File Version: V1.80                                               */
   3:../generate/inthandler.c **** /*    History : 1.00  (2012-06-12)  [Hardware Manual Revision : 1.00]   */
   4:../generate/inthandler.c **** /*            : 1.10  (2013-02-18)  [Hardware Manual Revision : 1.00]   */
   5:../generate/inthandler.c **** /*            : 1.80  (2015-04-22)  [Hardware Manual Revision : 1.80]   */
   6:../generate/inthandler.c **** /*    Date Generated: 25/05/2015                                        */
   7:../generate/inthandler.c **** /************************************************************************/
   8:../generate/inthandler.c **** 
   9:../generate/inthandler.c **** #include "interrupt_handlers.h"
  10:../generate/inthandler.c **** 
  11:../generate/inthandler.c **** /* INT_Exception(Supervisor Instruction)*/
  12:../generate/inthandler.c **** void INT_Excep_SuperVisorInst(void){/* brk(); */}
  10                             		.loc 1 12 36
  11                             		; Note: Interrupt Handler
  12 0000 7E AA                   		push.l	r10
  13                             	.LCFI0:
  14 0002 EF 0A                   		mov.L	r0, r10
  15                             	.LCFI1:
  16                             		.loc 1 12 1
  17 0004 03                      		nop
  18 0005 7E BA                   		pop	r10
  19 0007 7F 95                   		rte
  20                             	.LFE0:
  22                             		.section	.text.INT_Excep_AccessInst,"ax",@progbits
  23                             		.global	_INT_Excep_AccessInst
  25                             	_INT_Excep_AccessInst:
  26                             	.LFB1:
  13:../generate/inthandler.c **** 
  14:../generate/inthandler.c **** /* INT_Exception(Access Instruction)*/
  15:../generate/inthandler.c **** void INT_Excep_AccessInst(void){/* brk(); */}
  27                             		.loc 1 15 32
  28                             		; Note: Interrupt Handler
  29 0000 7E AA                   		push.l	r10
  30                             	.LCFI2:
  31 0002 EF 0A                   		mov.L	r0, r10
  32                             	.LCFI3:
  33                             		.loc 1 15 1
  34 0004 03                      		nop
  35 0005 7E BA                   		pop	r10
  36 0007 7F 95                   		rte
  37                             	.LFE1:
  39                             		.section	.text.INT_Excep_UndefinedInst,"ax",@progbits
  40                             		.global	_INT_Excep_UndefinedInst
  42                             	_INT_Excep_UndefinedInst:
  43                             	.LFB2:
  16:../generate/inthandler.c **** 
  17:../generate/inthandler.c **** /* INT_Exception(Undefined Instruction)*/
  18:../generate/inthandler.c **** void INT_Excep_UndefinedInst(void){/* brk(); */}
  44                             		.loc 1 18 35
  45                             		; Note: Interrupt Handler
  46 0000 7E AA                   		push.l	r10
  47                             	.LCFI4:
  48 0002 EF 0A                   		mov.L	r0, r10
  49                             	.LCFI5:
  50                             		.loc 1 18 1
  51 0004 03                      		nop
  52 0005 7E BA                   		pop	r10
  53 0007 7F 95                   		rte
  54                             	.LFE2:
  56                             		.section	.text.INT_Excep_FloatingPoint,"ax",@progbits
  57                             		.global	_INT_Excep_FloatingPoint
  59                             	_INT_Excep_FloatingPoint:
  60                             	.LFB3:
  19:../generate/inthandler.c **** 
  20:../generate/inthandler.c **** /* INT_Exception(Floating Point)*/
  21:../generate/inthandler.c **** void INT_Excep_FloatingPoint(void){/* brk(); */}
  61                             		.loc 1 21 35
  62                             		; Note: Interrupt Handler
  63 0000 7E AA                   		push.l	r10
  64                             	.LCFI6:
  65 0002 EF 0A                   		mov.L	r0, r10
  66                             	.LCFI7:
  67                             		.loc 1 21 1
  68 0004 03                      		nop
  69 0005 7E BA                   		pop	r10
  70 0007 7F 95                   		rte
  71                             	.LFE3:
  73                             		.section	.text.INT_NonMaskableInterrupt,"ax",@progbits
  74                             		.global	_INT_NonMaskableInterrupt
  76                             	_INT_NonMaskableInterrupt:
  77                             	.LFB4:
  22:../generate/inthandler.c **** 
  23:../generate/inthandler.c **** /* NMI*/
  24:../generate/inthandler.c **** void INT_NonMaskableInterrupt(void){/* brk(); */}
  78                             		.loc 1 24 36
  79                             		; Note: Interrupt Handler
  80 0000 7E AA                   		push.l	r10
  81                             	.LCFI8:
  82 0002 EF 0A                   		mov.L	r0, r10
  83                             	.LCFI9:
  84                             		.loc 1 24 1
  85 0004 03                      		nop
  86 0005 7E BA                   		pop	r10
  87 0007 7F 95                   		rte
  88                             	.LFE4:
  90                             		.section	.text.INT_Dummy,"ax",@progbits
  91                             		.global	_INT_Dummy
  93                             	_INT_Dummy:
  94                             	.LFB5:
  25:../generate/inthandler.c **** 
  26:../generate/inthandler.c **** /* Dummy*/
  27:../generate/inthandler.c **** void INT_Dummy(void){/* brk(); */}
  95                             		.loc 1 27 21
  96                             		; Note: Interrupt Handler
  97 0000 7E AA                   		push.l	r10
  98                             	.LCFI10:
  99 0002 EF 0A                   		mov.L	r0, r10
 100                             	.LCFI11:
 101                             		.loc 1 27 1
 102 0004 03                      		nop
 103 0005 7E BA                   		pop	r10
 104 0007 7F 95                   		rte
 105                             	.LFE5:
 107                             		.section	.text.INT_Excep_BRK,"ax",@progbits
 108                             		.global	_INT_Excep_BRK
 110                             	_INT_Excep_BRK:
 111                             	.LFB6:
  28:../generate/inthandler.c **** 
  29:../generate/inthandler.c **** /* BRK*/
  30:../generate/inthandler.c **** void INT_Excep_BRK(void){/* wait();*/ }
 112                             		.loc 1 30 25
 113                             		; Note: Interrupt Handler
 114 0000 7E AA                   		push.l	r10
 115                             	.LCFI12:
 116 0002 EF 0A                   		mov.L	r0, r10
 117                             	.LCFI13:
 118                             		.loc 1 30 1
 119 0004 03                      		nop
 120 0005 7E BA                   		pop	r10
 121 0007 7F 95                   		rte
 122                             	.LFE6:
 124                             		.section	.text.INT_Excep_BSC_BUSERR,"ax",@progbits
 125                             		.global	_INT_Excep_BSC_BUSERR
 127                             	_INT_Excep_BSC_BUSERR:
 128                             	.LFB7:
  31:../generate/inthandler.c **** 
  32:../generate/inthandler.c **** /* BSC BUSERR*/
  33:../generate/inthandler.c **** void INT_Excep_BSC_BUSERR(void){ }
 129                             		.loc 1 33 32
 130                             		; Note: Interrupt Handler
 131 0000 7E AA                   		push.l	r10
 132                             	.LCFI14:
 133 0002 EF 0A                   		mov.L	r0, r10
 134                             	.LCFI15:
 135                             		.loc 1 33 1
 136 0004 03                      		nop
 137 0005 7E BA                   		pop	r10
 138 0007 7F 95                   		rte
 139                             	.LFE7:
 141                             		.section	.text.INT_Excep_FCU_FIFERR,"ax",@progbits
 142                             		.global	_INT_Excep_FCU_FIFERR
 144                             	_INT_Excep_FCU_FIFERR:
 145                             	.LFB8:
  34:../generate/inthandler.c **** 
  35:../generate/inthandler.c **** /* FCU FIFERR*/
  36:../generate/inthandler.c **** void INT_Excep_FCU_FIFERR(void){ }
 146                             		.loc 1 36 32
 147                             		; Note: Interrupt Handler
 148 0000 7E AA                   		push.l	r10
 149                             	.LCFI16:
 150 0002 EF 0A                   		mov.L	r0, r10
 151                             	.LCFI17:
 152                             		.loc 1 36 1
 153 0004 03                      		nop
 154 0005 7E BA                   		pop	r10
 155 0007 7F 95                   		rte
 156                             	.LFE8:
 158                             		.section	.text.INT_Excep_FCU_FRDYI,"ax",@progbits
 159                             		.global	_INT_Excep_FCU_FRDYI
 161                             	_INT_Excep_FCU_FRDYI:
 162                             	.LFB9:
  37:../generate/inthandler.c **** 
  38:../generate/inthandler.c **** /* FCU FRDYI*/
  39:../generate/inthandler.c **** void INT_Excep_FCU_FRDYI(void){ }
 163                             		.loc 1 39 31
 164                             		; Note: Interrupt Handler
 165 0000 7E AA                   		push.l	r10
 166                             	.LCFI18:
 167 0002 EF 0A                   		mov.L	r0, r10
 168                             	.LCFI19:
 169                             		.loc 1 39 1
 170 0004 03                      		nop
 171 0005 7E BA                   		pop	r10
 172 0007 7F 95                   		rte
 173                             	.LFE9:
 175                             		.section	.text.INT_Excep_ICU_SWINT,"ax",@progbits
 176                             		.global	_INT_Excep_ICU_SWINT
 178                             	_INT_Excep_ICU_SWINT:
 179                             	.LFB10:
  40:../generate/inthandler.c **** 
  41:../generate/inthandler.c **** /* ICU SWINT*/
  42:../generate/inthandler.c **** void INT_Excep_ICU_SWINT(void){ }
 180                             		.loc 1 42 31
 181                             		; Note: Interrupt Handler
 182 0000 7E AA                   		push.l	r10
 183                             	.LCFI20:
 184 0002 EF 0A                   		mov.L	r0, r10
 185                             	.LCFI21:
 186                             		.loc 1 42 1
 187 0004 03                      		nop
 188 0005 7E BA                   		pop	r10
 189 0007 7F 95                   		rte
 190                             	.LFE10:
 192                             		.section	.text.INT_Excep_CMT0_CMI0,"ax",@progbits
 193                             		.global	_INT_Excep_CMT0_CMI0
 195                             	_INT_Excep_CMT0_CMI0:
 196                             	.LFB11:
  43:../generate/inthandler.c **** 
  44:../generate/inthandler.c **** /* CMT0 CMI0*/
  45:../generate/inthandler.c **** void INT_Excep_CMT0_CMI0(void){ }
 197                             		.loc 1 45 31
 198                             		; Note: Interrupt Handler
 199 0000 7E AA                   		push.l	r10
 200                             	.LCFI22:
 201 0002 EF 0A                   		mov.L	r0, r10
 202                             	.LCFI23:
 203                             		.loc 1 45 1
 204 0004 03                      		nop
 205 0005 7E BA                   		pop	r10
 206 0007 7F 95                   		rte
 207                             	.LFE11:
 209                             		.section	.text.INT_Excep_CMT1_CMI1,"ax",@progbits
 210                             		.global	_INT_Excep_CMT1_CMI1
 212                             	_INT_Excep_CMT1_CMI1:
 213                             	.LFB12:
  46:../generate/inthandler.c **** 
  47:../generate/inthandler.c **** /* CMT1 CMI1*/
  48:../generate/inthandler.c **** void INT_Excep_CMT1_CMI1(void){ }
 214                             		.loc 1 48 31
 215                             		; Note: Interrupt Handler
 216 0000 7E AA                   		push.l	r10
 217                             	.LCFI24:
 218 0002 EF 0A                   		mov.L	r0, r10
 219                             	.LCFI25:
 220                             		.loc 1 48 1
 221 0004 03                      		nop
 222 0005 7E BA                   		pop	r10
 223 0007 7F 95                   		rte
 224                             	.LFE12:
 226                             		.section	.text.INT_Excep_CMT2_CMI2,"ax",@progbits
 227                             		.global	_INT_Excep_CMT2_CMI2
 229                             	_INT_Excep_CMT2_CMI2:
 230                             	.LFB13:
  49:../generate/inthandler.c **** 
  50:../generate/inthandler.c **** /* CMT2 CMI2*/
  51:../generate/inthandler.c **** void INT_Excep_CMT2_CMI2(void){ }
 231                             		.loc 1 51 31
 232                             		; Note: Interrupt Handler
 233 0000 7E AA                   		push.l	r10
 234                             	.LCFI26:
 235 0002 EF 0A                   		mov.L	r0, r10
 236                             	.LCFI27:
 237                             		.loc 1 51 1
 238 0004 03                      		nop
 239 0005 7E BA                   		pop	r10
 240 0007 7F 95                   		rte
 241                             	.LFE13:
 243                             		.section	.text.INT_Excep_CMT3_CMI3,"ax",@progbits
 244                             		.global	_INT_Excep_CMT3_CMI3
 246                             	_INT_Excep_CMT3_CMI3:
 247                             	.LFB14:
  52:../generate/inthandler.c **** 
  53:../generate/inthandler.c **** /* CMT3 CMI3*/
  54:../generate/inthandler.c **** void INT_Excep_CMT3_CMI3(void){ }
 248                             		.loc 1 54 31
 249                             		; Note: Interrupt Handler
 250 0000 7E AA                   		push.l	r10
 251                             	.LCFI28:
 252 0002 EF 0A                   		mov.L	r0, r10
 253                             	.LCFI29:
 254                             		.loc 1 54 1
 255 0004 03                      		nop
 256 0005 7E BA                   		pop	r10
 257 0007 7F 95                   		rte
 258                             	.LFE14:
 260                             		.section	.text.INT_Excep_ETHER_EINT,"ax",@progbits
 261                             		.global	_INT_Excep_ETHER_EINT
 263                             	_INT_Excep_ETHER_EINT:
 264                             	.LFB15:
  55:../generate/inthandler.c **** 
  56:../generate/inthandler.c **** /* ETHER EINT*/
  57:../generate/inthandler.c **** void INT_Excep_ETHER_EINT(void){ }
 265                             		.loc 1 57 32
 266                             		; Note: Interrupt Handler
 267 0000 7E AA                   		push.l	r10
 268                             	.LCFI30:
 269 0002 EF 0A                   		mov.L	r0, r10
 270                             	.LCFI31:
 271                             		.loc 1 57 1
 272 0004 03                      		nop
 273 0005 7E BA                   		pop	r10
 274 0007 7F 95                   		rte
 275                             	.LFE15:
 277                             		.section	.text.INT_Excep_USB0_D0FIFO0,"ax",@progbits
 278                             		.global	_INT_Excep_USB0_D0FIFO0
 280                             	_INT_Excep_USB0_D0FIFO0:
 281                             	.LFB16:
  58:../generate/inthandler.c **** 
  59:../generate/inthandler.c **** /* USB0 D0FIFO0*/
  60:../generate/inthandler.c **** void INT_Excep_USB0_D0FIFO0(void){ }
 282                             		.loc 1 60 34
 283                             		; Note: Interrupt Handler
 284 0000 7E AA                   		push.l	r10
 285                             	.LCFI32:
 286 0002 EF 0A                   		mov.L	r0, r10
 287                             	.LCFI33:
 288                             		.loc 1 60 1
 289 0004 03                      		nop
 290 0005 7E BA                   		pop	r10
 291 0007 7F 95                   		rte
 292                             	.LFE16:
 294                             		.section	.text.INT_Excep_USB0_D1FIFO0,"ax",@progbits
 295                             		.global	_INT_Excep_USB0_D1FIFO0
 297                             	_INT_Excep_USB0_D1FIFO0:
 298                             	.LFB17:
  61:../generate/inthandler.c **** 
  62:../generate/inthandler.c **** /* USB0 D1FIFO0*/
  63:../generate/inthandler.c **** void INT_Excep_USB0_D1FIFO0(void){ }
 299                             		.loc 1 63 34
 300                             		; Note: Interrupt Handler
 301 0000 7E AA                   		push.l	r10
 302                             	.LCFI34:
 303 0002 EF 0A                   		mov.L	r0, r10
 304                             	.LCFI35:
 305                             		.loc 1 63 1
 306 0004 03                      		nop
 307 0005 7E BA                   		pop	r10
 308 0007 7F 95                   		rte
 309                             	.LFE17:
 311                             		.section	.text.INT_Excep_USB0_USBI0,"ax",@progbits
 312                             		.global	_INT_Excep_USB0_USBI0
 314                             	_INT_Excep_USB0_USBI0:
 315                             	.LFB18:
  64:../generate/inthandler.c **** 
  65:../generate/inthandler.c **** /* USB0 USBI0*/
  66:../generate/inthandler.c **** void INT_Excep_USB0_USBI0(void){ }
 316                             		.loc 1 66 32
 317                             		; Note: Interrupt Handler
 318 0000 7E AA                   		push.l	r10
 319                             	.LCFI36:
 320 0002 EF 0A                   		mov.L	r0, r10
 321                             	.LCFI37:
 322                             		.loc 1 66 1
 323 0004 03                      		nop
 324 0005 7E BA                   		pop	r10
 325 0007 7F 95                   		rte
 326                             	.LFE18:
 328                             		.section	.text.INT_Excep_USB1_D0FIFO1,"ax",@progbits
 329                             		.global	_INT_Excep_USB1_D0FIFO1
 331                             	_INT_Excep_USB1_D0FIFO1:
 332                             	.LFB19:
  67:../generate/inthandler.c **** 
  68:../generate/inthandler.c **** /* USB1 D0FIFO1*/
  69:../generate/inthandler.c **** void INT_Excep_USB1_D0FIFO1(void){ }
 333                             		.loc 1 69 34
 334                             		; Note: Interrupt Handler
 335 0000 7E AA                   		push.l	r10
 336                             	.LCFI38:
 337 0002 EF 0A                   		mov.L	r0, r10
 338                             	.LCFI39:
 339                             		.loc 1 69 1
 340 0004 03                      		nop
 341 0005 7E BA                   		pop	r10
 342 0007 7F 95                   		rte
 343                             	.LFE19:
 345                             		.section	.text.INT_Excep_USB1_D1FIFO1,"ax",@progbits
 346                             		.global	_INT_Excep_USB1_D1FIFO1
 348                             	_INT_Excep_USB1_D1FIFO1:
 349                             	.LFB20:
  70:../generate/inthandler.c **** 
  71:../generate/inthandler.c **** /* USB1 D1FIFO1*/
  72:../generate/inthandler.c **** void INT_Excep_USB1_D1FIFO1(void){ }
 350                             		.loc 1 72 34
 351                             		; Note: Interrupt Handler
 352 0000 7E AA                   		push.l	r10
 353                             	.LCFI40:
 354 0002 EF 0A                   		mov.L	r0, r10
 355                             	.LCFI41:
 356                             		.loc 1 72 1
 357 0004 03                      		nop
 358 0005 7E BA                   		pop	r10
 359 0007 7F 95                   		rte
 360                             	.LFE20:
 362                             		.section	.text.INT_Excep_USB1_USBI1,"ax",@progbits
 363                             		.global	_INT_Excep_USB1_USBI1
 365                             	_INT_Excep_USB1_USBI1:
 366                             	.LFB21:
  73:../generate/inthandler.c **** 
  74:../generate/inthandler.c **** /* USB1 USBI1*/
  75:../generate/inthandler.c **** void INT_Excep_USB1_USBI1(void){ }
 367                             		.loc 1 75 32
 368                             		; Note: Interrupt Handler
 369 0000 7E AA                   		push.l	r10
 370                             	.LCFI42:
 371 0002 EF 0A                   		mov.L	r0, r10
 372                             	.LCFI43:
 373                             		.loc 1 75 1
 374 0004 03                      		nop
 375 0005 7E BA                   		pop	r10
 376 0007 7F 95                   		rte
 377                             	.LFE21:
 379                             		.section	.text.INT_Excep_RSPI0_SPRI0,"ax",@progbits
 380                             		.global	_INT_Excep_RSPI0_SPRI0
 382                             	_INT_Excep_RSPI0_SPRI0:
 383                             	.LFB22:
  76:../generate/inthandler.c **** 
  77:../generate/inthandler.c **** /* RSPI0 SPRI0*/
  78:../generate/inthandler.c **** void INT_Excep_RSPI0_SPRI0(void){ }
 384                             		.loc 1 78 33
 385                             		; Note: Interrupt Handler
 386 0000 7E AA                   		push.l	r10
 387                             	.LCFI44:
 388 0002 EF 0A                   		mov.L	r0, r10
 389                             	.LCFI45:
 390                             		.loc 1 78 1
 391 0004 03                      		nop
 392 0005 7E BA                   		pop	r10
 393 0007 7F 95                   		rte
 394                             	.LFE22:
 396                             		.section	.text.INT_Excep_RSPI0_SPTI0,"ax",@progbits
 397                             		.global	_INT_Excep_RSPI0_SPTI0
 399                             	_INT_Excep_RSPI0_SPTI0:
 400                             	.LFB23:
  79:../generate/inthandler.c **** 
  80:../generate/inthandler.c **** /* RSPI0 SPTI0*/
  81:../generate/inthandler.c **** void INT_Excep_RSPI0_SPTI0(void){ }
 401                             		.loc 1 81 33
 402                             		; Note: Interrupt Handler
 403 0000 7E AA                   		push.l	r10
 404                             	.LCFI46:
 405 0002 EF 0A                   		mov.L	r0, r10
 406                             	.LCFI47:
 407                             		.loc 1 81 1
 408 0004 03                      		nop
 409 0005 7E BA                   		pop	r10
 410 0007 7F 95                   		rte
 411                             	.LFE23:
 413                             		.section	.text.INT_Excep_RSPI0_SPII0,"ax",@progbits
 414                             		.global	_INT_Excep_RSPI0_SPII0
 416                             	_INT_Excep_RSPI0_SPII0:
 417                             	.LFB24:
  82:../generate/inthandler.c **** 
  83:../generate/inthandler.c **** /* RSPI0 SPII0*/
  84:../generate/inthandler.c **** void INT_Excep_RSPI0_SPII0(void){ }
 418                             		.loc 1 84 33
 419                             		; Note: Interrupt Handler
 420 0000 7E AA                   		push.l	r10
 421                             	.LCFI48:
 422 0002 EF 0A                   		mov.L	r0, r10
 423                             	.LCFI49:
 424                             		.loc 1 84 1
 425 0004 03                      		nop
 426 0005 7E BA                   		pop	r10
 427 0007 7F 95                   		rte
 428                             	.LFE24:
 430                             		.section	.text.INT_Excep_RSPI1_SPRI1,"ax",@progbits
 431                             		.global	_INT_Excep_RSPI1_SPRI1
 433                             	_INT_Excep_RSPI1_SPRI1:
 434                             	.LFB25:
  85:../generate/inthandler.c **** 
  86:../generate/inthandler.c **** /* RSPI1 SPRI1*/
  87:../generate/inthandler.c **** void INT_Excep_RSPI1_SPRI1(void){ }
 435                             		.loc 1 87 33
 436                             		; Note: Interrupt Handler
 437 0000 7E AA                   		push.l	r10
 438                             	.LCFI50:
 439 0002 EF 0A                   		mov.L	r0, r10
 440                             	.LCFI51:
 441                             		.loc 1 87 1
 442 0004 03                      		nop
 443 0005 7E BA                   		pop	r10
 444 0007 7F 95                   		rte
 445                             	.LFE25:
 447                             		.section	.text.INT_Excep_RSPI1_SPTI1,"ax",@progbits
 448                             		.global	_INT_Excep_RSPI1_SPTI1
 450                             	_INT_Excep_RSPI1_SPTI1:
 451                             	.LFB26:
  88:../generate/inthandler.c **** 
  89:../generate/inthandler.c **** /* RSPI1 SPTI1*/
  90:../generate/inthandler.c **** void INT_Excep_RSPI1_SPTI1(void){ }
 452                             		.loc 1 90 33
 453                             		; Note: Interrupt Handler
 454 0000 7E AA                   		push.l	r10
 455                             	.LCFI52:
 456 0002 EF 0A                   		mov.L	r0, r10
 457                             	.LCFI53:
 458                             		.loc 1 90 1
 459 0004 03                      		nop
 460 0005 7E BA                   		pop	r10
 461 0007 7F 95                   		rte
 462                             	.LFE26:
 464                             		.section	.text.INT_Excep_RSPI1_SPII1,"ax",@progbits
 465                             		.global	_INT_Excep_RSPI1_SPII1
 467                             	_INT_Excep_RSPI1_SPII1:
 468                             	.LFB27:
  91:../generate/inthandler.c **** 
  92:../generate/inthandler.c **** /* RSPI1 SPII1*/
  93:../generate/inthandler.c **** void INT_Excep_RSPI1_SPII1(void){ }
 469                             		.loc 1 93 33
 470                             		; Note: Interrupt Handler
 471 0000 7E AA                   		push.l	r10
 472                             	.LCFI54:
 473 0002 EF 0A                   		mov.L	r0, r10
 474                             	.LCFI55:
 475                             		.loc 1 93 1
 476 0004 03                      		nop
 477 0005 7E BA                   		pop	r10
 478 0007 7F 95                   		rte
 479                             	.LFE27:
 481                             		.section	.text.INT_Excep_RSPI2_SPRI2,"ax",@progbits
 482                             		.global	_INT_Excep_RSPI2_SPRI2
 484                             	_INT_Excep_RSPI2_SPRI2:
 485                             	.LFB28:
  94:../generate/inthandler.c **** 
  95:../generate/inthandler.c **** /* RSPI2 SPRI2*/
  96:../generate/inthandler.c **** void INT_Excep_RSPI2_SPRI2(void){ }
 486                             		.loc 1 96 33
 487                             		; Note: Interrupt Handler
 488 0000 7E AA                   		push.l	r10
 489                             	.LCFI56:
 490 0002 EF 0A                   		mov.L	r0, r10
 491                             	.LCFI57:
 492                             		.loc 1 96 1
 493 0004 03                      		nop
 494 0005 7E BA                   		pop	r10
 495 0007 7F 95                   		rte
 496                             	.LFE28:
 498                             		.section	.text.INT_Excep_RSPI2_SPTI2,"ax",@progbits
 499                             		.global	_INT_Excep_RSPI2_SPTI2
 501                             	_INT_Excep_RSPI2_SPTI2:
 502                             	.LFB29:
  97:../generate/inthandler.c **** 
  98:../generate/inthandler.c **** /* RSPI2 SPTI2*/
  99:../generate/inthandler.c **** void INT_Excep_RSPI2_SPTI2(void){ }
 503                             		.loc 1 99 33
 504                             		; Note: Interrupt Handler
 505 0000 7E AA                   		push.l	r10
 506                             	.LCFI58:
 507 0002 EF 0A                   		mov.L	r0, r10
 508                             	.LCFI59:
 509                             		.loc 1 99 1
 510 0004 03                      		nop
 511 0005 7E BA                   		pop	r10
 512 0007 7F 95                   		rte
 513                             	.LFE29:
 515                             		.section	.text.INT_Excep_RSPI2_SPII2,"ax",@progbits
 516                             		.global	_INT_Excep_RSPI2_SPII2
 518                             	_INT_Excep_RSPI2_SPII2:
 519                             	.LFB30:
 100:../generate/inthandler.c **** 
 101:../generate/inthandler.c **** /* RSPI2 SPII2*/
 102:../generate/inthandler.c **** void INT_Excep_RSPI2_SPII2(void){ }
 520                             		.loc 1 102 33
 521                             		; Note: Interrupt Handler
 522 0000 7E AA                   		push.l	r10
 523                             	.LCFI60:
 524 0002 EF 0A                   		mov.L	r0, r10
 525                             	.LCFI61:
 526                             		.loc 1 102 1
 527 0004 03                      		nop
 528 0005 7E BA                   		pop	r10
 529 0007 7F 95                   		rte
 530                             	.LFE30:
 532                             		.section	.text.INT_Excep_CAN0_RXF0,"ax",@progbits
 533                             		.global	_INT_Excep_CAN0_RXF0
 535                             	_INT_Excep_CAN0_RXF0:
 536                             	.LFB31:
 103:../generate/inthandler.c **** 
 104:../generate/inthandler.c **** /* CAN0 RXF0*/
 105:../generate/inthandler.c **** void INT_Excep_CAN0_RXF0(void){ }
 537                             		.loc 1 105 31
 538                             		; Note: Interrupt Handler
 539 0000 7E AA                   		push.l	r10
 540                             	.LCFI62:
 541 0002 EF 0A                   		mov.L	r0, r10
 542                             	.LCFI63:
 543                             		.loc 1 105 1
 544 0004 03                      		nop
 545 0005 7E BA                   		pop	r10
 546 0007 7F 95                   		rte
 547                             	.LFE31:
 549                             		.section	.text.INT_Excep_CAN0_TXF0,"ax",@progbits
 550                             		.global	_INT_Excep_CAN0_TXF0
 552                             	_INT_Excep_CAN0_TXF0:
 553                             	.LFB32:
 106:../generate/inthandler.c **** 
 107:../generate/inthandler.c **** /* CAN0 TXF0*/
 108:../generate/inthandler.c **** void INT_Excep_CAN0_TXF0(void){ }
 554                             		.loc 1 108 31
 555                             		; Note: Interrupt Handler
 556 0000 7E AA                   		push.l	r10
 557                             	.LCFI64:
 558 0002 EF 0A                   		mov.L	r0, r10
 559                             	.LCFI65:
 560                             		.loc 1 108 1
 561 0004 03                      		nop
 562 0005 7E BA                   		pop	r10
 563 0007 7F 95                   		rte
 564                             	.LFE32:
 566                             		.section	.text.INT_Excep_CAN0_RXM0,"ax",@progbits
 567                             		.global	_INT_Excep_CAN0_RXM0
 569                             	_INT_Excep_CAN0_RXM0:
 570                             	.LFB33:
 109:../generate/inthandler.c **** 
 110:../generate/inthandler.c **** /* CAN0 RXM0*/
 111:../generate/inthandler.c **** void INT_Excep_CAN0_RXM0(void){ }
 571                             		.loc 1 111 31
 572                             		; Note: Interrupt Handler
 573 0000 7E AA                   		push.l	r10
 574                             	.LCFI66:
 575 0002 EF 0A                   		mov.L	r0, r10
 576                             	.LCFI67:
 577                             		.loc 1 111 1
 578 0004 03                      		nop
 579 0005 7E BA                   		pop	r10
 580 0007 7F 95                   		rte
 581                             	.LFE33:
 583                             		.section	.text.INT_Excep_CAN0_TXM0,"ax",@progbits
 584                             		.global	_INT_Excep_CAN0_TXM0
 586                             	_INT_Excep_CAN0_TXM0:
 587                             	.LFB34:
 112:../generate/inthandler.c **** 
 113:../generate/inthandler.c **** /* CAN0 TXM0*/
 114:../generate/inthandler.c **** void INT_Excep_CAN0_TXM0(void){ }
 588                             		.loc 1 114 31
 589                             		; Note: Interrupt Handler
 590 0000 7E AA                   		push.l	r10
 591                             	.LCFI68:
 592 0002 EF 0A                   		mov.L	r0, r10
 593                             	.LCFI69:
 594                             		.loc 1 114 1
 595 0004 03                      		nop
 596 0005 7E BA                   		pop	r10
 597 0007 7F 95                   		rte
 598                             	.LFE34:
 600                             		.section	.text.INT_Excep_CAN1_RXF1,"ax",@progbits
 601                             		.global	_INT_Excep_CAN1_RXF1
 603                             	_INT_Excep_CAN1_RXF1:
 604                             	.LFB35:
 115:../generate/inthandler.c **** 
 116:../generate/inthandler.c **** /* CAN1 RXF1*/
 117:../generate/inthandler.c **** void INT_Excep_CAN1_RXF1(void){ }
 605                             		.loc 1 117 31
 606                             		; Note: Interrupt Handler
 607 0000 7E AA                   		push.l	r10
 608                             	.LCFI70:
 609 0002 EF 0A                   		mov.L	r0, r10
 610                             	.LCFI71:
 611                             		.loc 1 117 1
 612 0004 03                      		nop
 613 0005 7E BA                   		pop	r10
 614 0007 7F 95                   		rte
 615                             	.LFE35:
 617                             		.section	.text.INT_Excep_CAN1_TXF1,"ax",@progbits
 618                             		.global	_INT_Excep_CAN1_TXF1
 620                             	_INT_Excep_CAN1_TXF1:
 621                             	.LFB36:
 118:../generate/inthandler.c **** 
 119:../generate/inthandler.c **** /* CAN1 TXF1*/
 120:../generate/inthandler.c **** void INT_Excep_CAN1_TXF1(void){ }
 622                             		.loc 1 120 31
 623                             		; Note: Interrupt Handler
 624 0000 7E AA                   		push.l	r10
 625                             	.LCFI72:
 626 0002 EF 0A                   		mov.L	r0, r10
 627                             	.LCFI73:
 628                             		.loc 1 120 1
 629 0004 03                      		nop
 630 0005 7E BA                   		pop	r10
 631 0007 7F 95                   		rte
 632                             	.LFE36:
 634                             		.section	.text.INT_Excep_CAN1_RXM1,"ax",@progbits
 635                             		.global	_INT_Excep_CAN1_RXM1
 637                             	_INT_Excep_CAN1_RXM1:
 638                             	.LFB37:
 121:../generate/inthandler.c **** 
 122:../generate/inthandler.c **** /* CAN1 RXM1*/
 123:../generate/inthandler.c **** void INT_Excep_CAN1_RXM1(void){ }
 639                             		.loc 1 123 31
 640                             		; Note: Interrupt Handler
 641 0000 7E AA                   		push.l	r10
 642                             	.LCFI74:
 643 0002 EF 0A                   		mov.L	r0, r10
 644                             	.LCFI75:
 645                             		.loc 1 123 1
 646 0004 03                      		nop
 647 0005 7E BA                   		pop	r10
 648 0007 7F 95                   		rte
 649                             	.LFE37:
 651                             		.section	.text.INT_Excep_CAN1_TXM1,"ax",@progbits
 652                             		.global	_INT_Excep_CAN1_TXM1
 654                             	_INT_Excep_CAN1_TXM1:
 655                             	.LFB38:
 124:../generate/inthandler.c **** 
 125:../generate/inthandler.c **** /* CAN1 TXM1*/
 126:../generate/inthandler.c **** void INT_Excep_CAN1_TXM1(void){ }
 656                             		.loc 1 126 31
 657                             		; Note: Interrupt Handler
 658 0000 7E AA                   		push.l	r10
 659                             	.LCFI76:
 660 0002 EF 0A                   		mov.L	r0, r10
 661                             	.LCFI77:
 662                             		.loc 1 126 1
 663 0004 03                      		nop
 664 0005 7E BA                   		pop	r10
 665 0007 7F 95                   		rte
 666                             	.LFE38:
 668                             		.section	.text.INT_Excep_CAN2_RXF2,"ax",@progbits
 669                             		.global	_INT_Excep_CAN2_RXF2
 671                             	_INT_Excep_CAN2_RXF2:
 672                             	.LFB39:
 127:../generate/inthandler.c **** 
 128:../generate/inthandler.c **** /* CAN2 RXF2*/
 129:../generate/inthandler.c **** void INT_Excep_CAN2_RXF2(void){ }
 673                             		.loc 1 129 31
 674                             		; Note: Interrupt Handler
 675 0000 7E AA                   		push.l	r10
 676                             	.LCFI78:
 677 0002 EF 0A                   		mov.L	r0, r10
 678                             	.LCFI79:
 679                             		.loc 1 129 1
 680 0004 03                      		nop
 681 0005 7E BA                   		pop	r10
 682 0007 7F 95                   		rte
 683                             	.LFE39:
 685                             		.section	.text.INT_Excep_CAN2_TXF2,"ax",@progbits
 686                             		.global	_INT_Excep_CAN2_TXF2
 688                             	_INT_Excep_CAN2_TXF2:
 689                             	.LFB40:
 130:../generate/inthandler.c **** 
 131:../generate/inthandler.c **** /* CAN2 TXF2*/
 132:../generate/inthandler.c **** void INT_Excep_CAN2_TXF2(void){ }
 690                             		.loc 1 132 31
 691                             		; Note: Interrupt Handler
 692 0000 7E AA                   		push.l	r10
 693                             	.LCFI80:
 694 0002 EF 0A                   		mov.L	r0, r10
 695                             	.LCFI81:
 696                             		.loc 1 132 1
 697 0004 03                      		nop
 698 0005 7E BA                   		pop	r10
 699 0007 7F 95                   		rte
 700                             	.LFE40:
 702                             		.section	.text.INT_Excep_CAN2_RXM2,"ax",@progbits
 703                             		.global	_INT_Excep_CAN2_RXM2
 705                             	_INT_Excep_CAN2_RXM2:
 706                             	.LFB41:
 133:../generate/inthandler.c **** 
 134:../generate/inthandler.c **** /* CAN2 RXM2*/
 135:../generate/inthandler.c **** void INT_Excep_CAN2_RXM2(void){ }
 707                             		.loc 1 135 31
 708                             		; Note: Interrupt Handler
 709 0000 7E AA                   		push.l	r10
 710                             	.LCFI82:
 711 0002 EF 0A                   		mov.L	r0, r10
 712                             	.LCFI83:
 713                             		.loc 1 135 1
 714 0004 03                      		nop
 715 0005 7E BA                   		pop	r10
 716 0007 7F 95                   		rte
 717                             	.LFE41:
 719                             		.section	.text.INT_Excep_CAN2_TXM2,"ax",@progbits
 720                             		.global	_INT_Excep_CAN2_TXM2
 722                             	_INT_Excep_CAN2_TXM2:
 723                             	.LFB42:
 136:../generate/inthandler.c **** 
 137:../generate/inthandler.c **** /* CAN2 TXM2*/
 138:../generate/inthandler.c **** void INT_Excep_CAN2_TXM2(void){ }
 724                             		.loc 1 138 31
 725                             		; Note: Interrupt Handler
 726 0000 7E AA                   		push.l	r10
 727                             	.LCFI84:
 728 0002 EF 0A                   		mov.L	r0, r10
 729                             	.LCFI85:
 730                             		.loc 1 138 1
 731 0004 03                      		nop
 732 0005 7E BA                   		pop	r10
 733 0007 7F 95                   		rte
 734                             	.LFE42:
 736                             		.section	.text.INT_Excep_RTC_CUP,"ax",@progbits
 737                             		.global	_INT_Excep_RTC_CUP
 739                             	_INT_Excep_RTC_CUP:
 740                             	.LFB43:
 139:../generate/inthandler.c **** 
 140:../generate/inthandler.c **** /* RTC CUP*/
 141:../generate/inthandler.c **** void INT_Excep_RTC_CUP(void){ }
 741                             		.loc 1 141 29
 742                             		; Note: Interrupt Handler
 743 0000 7E AA                   		push.l	r10
 744                             	.LCFI86:
 745 0002 EF 0A                   		mov.L	r0, r10
 746                             	.LCFI87:
 747                             		.loc 1 141 1
 748 0004 03                      		nop
 749 0005 7E BA                   		pop	r10
 750 0007 7F 95                   		rte
 751                             	.LFE43:
 753                             		.section	.text.INT_Excep_ICU_IRQ0,"ax",@progbits
 754                             		.global	_INT_Excep_ICU_IRQ0
 756                             	_INT_Excep_ICU_IRQ0:
 757                             	.LFB44:
 142:../generate/inthandler.c **** 
 143:../generate/inthandler.c **** /* ICU IRQ0*/
 144:../generate/inthandler.c **** void INT_Excep_ICU_IRQ0(void){ }
 758                             		.loc 1 144 30
 759                             		; Note: Interrupt Handler
 760 0000 7E AA                   		push.l	r10
 761                             	.LCFI88:
 762 0002 EF 0A                   		mov.L	r0, r10
 763                             	.LCFI89:
 764                             		.loc 1 144 1
 765 0004 03                      		nop
 766 0005 7E BA                   		pop	r10
 767 0007 7F 95                   		rte
 768                             	.LFE44:
 770                             		.section	.text.INT_Excep_ICU_IRQ1,"ax",@progbits
 771                             		.global	_INT_Excep_ICU_IRQ1
 773                             	_INT_Excep_ICU_IRQ1:
 774                             	.LFB45:
 145:../generate/inthandler.c **** 
 146:../generate/inthandler.c **** /* ICU IRQ1*/
 147:../generate/inthandler.c **** void INT_Excep_ICU_IRQ1(void){ }
 775                             		.loc 1 147 30
 776                             		; Note: Interrupt Handler
 777 0000 7E AA                   		push.l	r10
 778                             	.LCFI90:
 779 0002 EF 0A                   		mov.L	r0, r10
 780                             	.LCFI91:
 781                             		.loc 1 147 1
 782 0004 03                      		nop
 783 0005 7E BA                   		pop	r10
 784 0007 7F 95                   		rte
 785                             	.LFE45:
 787                             		.section	.text.INT_Excep_ICU_IRQ2,"ax",@progbits
 788                             		.global	_INT_Excep_ICU_IRQ2
 790                             	_INT_Excep_ICU_IRQ2:
 791                             	.LFB46:
 148:../generate/inthandler.c **** 
 149:../generate/inthandler.c **** /* ICU IRQ2*/
 150:../generate/inthandler.c **** void INT_Excep_ICU_IRQ2(void){ }
 792                             		.loc 1 150 30
 793                             		; Note: Interrupt Handler
 794 0000 7E AA                   		push.l	r10
 795                             	.LCFI92:
 796 0002 EF 0A                   		mov.L	r0, r10
 797                             	.LCFI93:
 798                             		.loc 1 150 1
 799 0004 03                      		nop
 800 0005 7E BA                   		pop	r10
 801 0007 7F 95                   		rte
 802                             	.LFE46:
 804                             		.section	.text.INT_Excep_ICU_IRQ3,"ax",@progbits
 805                             		.global	_INT_Excep_ICU_IRQ3
 807                             	_INT_Excep_ICU_IRQ3:
 808                             	.LFB47:
 151:../generate/inthandler.c **** 
 152:../generate/inthandler.c **** /* ICU IRQ3*/
 153:../generate/inthandler.c **** void INT_Excep_ICU_IRQ3(void){ }
 809                             		.loc 1 153 30
 810                             		; Note: Interrupt Handler
 811 0000 7E AA                   		push.l	r10
 812                             	.LCFI94:
 813 0002 EF 0A                   		mov.L	r0, r10
 814                             	.LCFI95:
 815                             		.loc 1 153 1
 816 0004 03                      		nop
 817 0005 7E BA                   		pop	r10
 818 0007 7F 95                   		rte
 819                             	.LFE47:
 821                             		.section	.text.INT_Excep_ICU_IRQ4,"ax",@progbits
 822                             		.global	_INT_Excep_ICU_IRQ4
 824                             	_INT_Excep_ICU_IRQ4:
 825                             	.LFB48:
 154:../generate/inthandler.c **** 
 155:../generate/inthandler.c **** /* ICU IRQ4*/
 156:../generate/inthandler.c **** void INT_Excep_ICU_IRQ4(void){ }
 826                             		.loc 1 156 30
 827                             		; Note: Interrupt Handler
 828 0000 7E AA                   		push.l	r10
 829                             	.LCFI96:
 830 0002 EF 0A                   		mov.L	r0, r10
 831                             	.LCFI97:
 832                             		.loc 1 156 1
 833 0004 03                      		nop
 834 0005 7E BA                   		pop	r10
 835 0007 7F 95                   		rte
 836                             	.LFE48:
 838                             		.section	.text.INT_Excep_ICU_IRQ5,"ax",@progbits
 839                             		.global	_INT_Excep_ICU_IRQ5
 841                             	_INT_Excep_ICU_IRQ5:
 842                             	.LFB49:
 157:../generate/inthandler.c **** 
 158:../generate/inthandler.c **** /* ICU IRQ5*/
 159:../generate/inthandler.c **** void INT_Excep_ICU_IRQ5(void){ }
 843                             		.loc 1 159 30
 844                             		; Note: Interrupt Handler
 845 0000 7E AA                   		push.l	r10
 846                             	.LCFI98:
 847 0002 EF 0A                   		mov.L	r0, r10
 848                             	.LCFI99:
 849                             		.loc 1 159 1
 850 0004 03                      		nop
 851 0005 7E BA                   		pop	r10
 852 0007 7F 95                   		rte
 853                             	.LFE49:
 855                             		.section	.text.INT_Excep_ICU_IRQ6,"ax",@progbits
 856                             		.global	_INT_Excep_ICU_IRQ6
 858                             	_INT_Excep_ICU_IRQ6:
 859                             	.LFB50:
 160:../generate/inthandler.c **** 
 161:../generate/inthandler.c **** /* ICU IRQ6*/
 162:../generate/inthandler.c **** void INT_Excep_ICU_IRQ6(void){ }
 860                             		.loc 1 162 30
 861                             		; Note: Interrupt Handler
 862 0000 7E AA                   		push.l	r10
 863                             	.LCFI100:
 864 0002 EF 0A                   		mov.L	r0, r10
 865                             	.LCFI101:
 866                             		.loc 1 162 1
 867 0004 03                      		nop
 868 0005 7E BA                   		pop	r10
 869 0007 7F 95                   		rte
 870                             	.LFE50:
 872                             		.section	.text.INT_Excep_ICU_IRQ7,"ax",@progbits
 873                             		.global	_INT_Excep_ICU_IRQ7
 875                             	_INT_Excep_ICU_IRQ7:
 876                             	.LFB51:
 163:../generate/inthandler.c **** 
 164:../generate/inthandler.c **** /* ICU IRQ7*/
 165:../generate/inthandler.c **** void INT_Excep_ICU_IRQ7(void){ }
 877                             		.loc 1 165 30
 878                             		; Note: Interrupt Handler
 879 0000 7E AA                   		push.l	r10
 880                             	.LCFI102:
 881 0002 EF 0A                   		mov.L	r0, r10
 882                             	.LCFI103:
 883                             		.loc 1 165 1
 884 0004 03                      		nop
 885 0005 7E BA                   		pop	r10
 886 0007 7F 95                   		rte
 887                             	.LFE51:
 889                             		.section	.text.INT_Excep_ICU_IRQ8,"ax",@progbits
 890                             		.global	_INT_Excep_ICU_IRQ8
 892                             	_INT_Excep_ICU_IRQ8:
 893                             	.LFB52:
 166:../generate/inthandler.c **** 
 167:../generate/inthandler.c **** /* ICU IRQ8*/
 168:../generate/inthandler.c **** void INT_Excep_ICU_IRQ8(void){ }
 894                             		.loc 1 168 30
 895                             		; Note: Interrupt Handler
 896 0000 7E AA                   		push.l	r10
 897                             	.LCFI104:
 898 0002 EF 0A                   		mov.L	r0, r10
 899                             	.LCFI105:
 900                             		.loc 1 168 1
 901 0004 03                      		nop
 902 0005 7E BA                   		pop	r10
 903 0007 7F 95                   		rte
 904                             	.LFE52:
 906                             		.section	.text.INT_Excep_ICU_IRQ9,"ax",@progbits
 907                             		.global	_INT_Excep_ICU_IRQ9
 909                             	_INT_Excep_ICU_IRQ9:
 910                             	.LFB53:
 169:../generate/inthandler.c **** 
 170:../generate/inthandler.c **** /* ICU IRQ9*/
 171:../generate/inthandler.c **** void INT_Excep_ICU_IRQ9(void){ }
 911                             		.loc 1 171 30
 912                             		; Note: Interrupt Handler
 913 0000 7E AA                   		push.l	r10
 914                             	.LCFI106:
 915 0002 EF 0A                   		mov.L	r0, r10
 916                             	.LCFI107:
 917                             		.loc 1 171 1
 918 0004 03                      		nop
 919 0005 7E BA                   		pop	r10
 920 0007 7F 95                   		rte
 921                             	.LFE53:
 923                             		.section	.text.INT_Excep_ICU_IRQ10,"ax",@progbits
 924                             		.global	_INT_Excep_ICU_IRQ10
 926                             	_INT_Excep_ICU_IRQ10:
 927                             	.LFB54:
 172:../generate/inthandler.c **** 
 173:../generate/inthandler.c **** /* ICU IRQ10*/
 174:../generate/inthandler.c **** void INT_Excep_ICU_IRQ10(void){ }
 928                             		.loc 1 174 31
 929                             		; Note: Interrupt Handler
 930 0000 7E AA                   		push.l	r10
 931                             	.LCFI108:
 932 0002 EF 0A                   		mov.L	r0, r10
 933                             	.LCFI109:
 934                             		.loc 1 174 1
 935 0004 03                      		nop
 936 0005 7E BA                   		pop	r10
 937 0007 7F 95                   		rte
 938                             	.LFE54:
 940                             		.section	.text.INT_Excep_ICU_IRQ11,"ax",@progbits
 941                             		.global	_INT_Excep_ICU_IRQ11
 943                             	_INT_Excep_ICU_IRQ11:
 944                             	.LFB55:
 175:../generate/inthandler.c **** 
 176:../generate/inthandler.c **** /* ICU IRQ11*/
 177:../generate/inthandler.c **** void INT_Excep_ICU_IRQ11(void){ }
 945                             		.loc 1 177 31
 946                             		; Note: Interrupt Handler
 947 0000 7E AA                   		push.l	r10
 948                             	.LCFI110:
 949 0002 EF 0A                   		mov.L	r0, r10
 950                             	.LCFI111:
 951                             		.loc 1 177 1
 952 0004 03                      		nop
 953 0005 7E BA                   		pop	r10
 954 0007 7F 95                   		rte
 955                             	.LFE55:
 957                             		.section	.text.INT_Excep_ICU_IRQ12,"ax",@progbits
 958                             		.global	_INT_Excep_ICU_IRQ12
 960                             	_INT_Excep_ICU_IRQ12:
 961                             	.LFB56:
 178:../generate/inthandler.c **** 
 179:../generate/inthandler.c **** /* ICU IRQ12*/
 180:../generate/inthandler.c **** void INT_Excep_ICU_IRQ12(void){ }
 962                             		.loc 1 180 31
 963                             		; Note: Interrupt Handler
 964 0000 7E AA                   		push.l	r10
 965                             	.LCFI112:
 966 0002 EF 0A                   		mov.L	r0, r10
 967                             	.LCFI113:
 968                             		.loc 1 180 1
 969 0004 03                      		nop
 970 0005 7E BA                   		pop	r10
 971 0007 7F 95                   		rte
 972                             	.LFE56:
 974                             		.section	.text.INT_Excep_ICU_IRQ13,"ax",@progbits
 975                             		.global	_INT_Excep_ICU_IRQ13
 977                             	_INT_Excep_ICU_IRQ13:
 978                             	.LFB57:
 181:../generate/inthandler.c **** 
 182:../generate/inthandler.c **** /* ICU IRQ13*/
 183:../generate/inthandler.c **** void INT_Excep_ICU_IRQ13(void){ }
 979                             		.loc 1 183 31
 980                             		; Note: Interrupt Handler
 981 0000 7E AA                   		push.l	r10
 982                             	.LCFI114:
 983 0002 EF 0A                   		mov.L	r0, r10
 984                             	.LCFI115:
 985                             		.loc 1 183 1
 986 0004 03                      		nop
 987 0005 7E BA                   		pop	r10
 988 0007 7F 95                   		rte
 989                             	.LFE57:
 991                             		.section	.text.INT_Excep_ICU_IRQ14,"ax",@progbits
 992                             		.global	_INT_Excep_ICU_IRQ14
 994                             	_INT_Excep_ICU_IRQ14:
 995                             	.LFB58:
 184:../generate/inthandler.c **** 
 185:../generate/inthandler.c **** /* ICU IRQ14*/
 186:../generate/inthandler.c **** void INT_Excep_ICU_IRQ14(void){ }
 996                             		.loc 1 186 31
 997                             		; Note: Interrupt Handler
 998 0000 7E AA                   		push.l	r10
 999                             	.LCFI116:
 1000 0002 EF 0A                   		mov.L	r0, r10
 1001                             	.LCFI117:
 1002                             		.loc 1 186 1
 1003 0004 03                      		nop
 1004 0005 7E BA                   		pop	r10
 1005 0007 7F 95                   		rte
 1006                             	.LFE58:
 1008                             		.section	.text.INT_Excep_ICU_IRQ15,"ax",@progbits
 1009                             		.global	_INT_Excep_ICU_IRQ15
 1011                             	_INT_Excep_ICU_IRQ15:
 1012                             	.LFB59:
 187:../generate/inthandler.c **** 
 188:../generate/inthandler.c **** /* ICU IRQ15*/
 189:../generate/inthandler.c **** void INT_Excep_ICU_IRQ15(void){ }
 1013                             		.loc 1 189 31
 1014                             		; Note: Interrupt Handler
 1015 0000 7E AA                   		push.l	r10
 1016                             	.LCFI118:
 1017 0002 EF 0A                   		mov.L	r0, r10
 1018                             	.LCFI119:
 1019                             		.loc 1 189 1
 1020 0004 03                      		nop
 1021 0005 7E BA                   		pop	r10
 1022 0007 7F 95                   		rte
 1023                             	.LFE59:
 1025                             		.section	.text.INT_Excep_USB_USBR0,"ax",@progbits
 1026                             		.global	_INT_Excep_USB_USBR0
 1028                             	_INT_Excep_USB_USBR0:
 1029                             	.LFB60:
 190:../generate/inthandler.c **** 
 191:../generate/inthandler.c **** /* USB USBR0*/
 192:../generate/inthandler.c **** void INT_Excep_USB_USBR0(void){ }
 1030                             		.loc 1 192 31
 1031                             		; Note: Interrupt Handler
 1032 0000 7E AA                   		push.l	r10
 1033                             	.LCFI120:
 1034 0002 EF 0A                   		mov.L	r0, r10
 1035                             	.LCFI121:
 1036                             		.loc 1 192 1
 1037 0004 03                      		nop
 1038 0005 7E BA                   		pop	r10
 1039 0007 7F 95                   		rte
 1040                             	.LFE60:
 1042                             		.section	.text.INT_Excep_USB_USBR1,"ax",@progbits
 1043                             		.global	_INT_Excep_USB_USBR1
 1045                             	_INT_Excep_USB_USBR1:
 1046                             	.LFB61:
 193:../generate/inthandler.c **** 
 194:../generate/inthandler.c **** /* USB USBR1*/
 195:../generate/inthandler.c **** void INT_Excep_USB_USBR1(void){ }
 1047                             		.loc 1 195 31
 1048                             		; Note: Interrupt Handler
 1049 0000 7E AA                   		push.l	r10
 1050                             	.LCFI122:
 1051 0002 EF 0A                   		mov.L	r0, r10
 1052                             	.LCFI123:
 1053                             		.loc 1 195 1
 1054 0004 03                      		nop
 1055 0005 7E BA                   		pop	r10
 1056 0007 7F 95                   		rte
 1057                             	.LFE61:
 1059                             		.section	.text.INT_Excep_RTC_ALM,"ax",@progbits
 1060                             		.global	_INT_Excep_RTC_ALM
 1062                             	_INT_Excep_RTC_ALM:
 1063                             	.LFB62:
 196:../generate/inthandler.c **** 
 197:../generate/inthandler.c **** /* RTC ALM*/
 198:../generate/inthandler.c **** void INT_Excep_RTC_ALM(void){ }
 1064                             		.loc 1 198 29
 1065                             		; Note: Interrupt Handler
 1066 0000 7E AA                   		push.l	r10
 1067                             	.LCFI124:
 1068 0002 EF 0A                   		mov.L	r0, r10
 1069                             	.LCFI125:
 1070                             		.loc 1 198 1
 1071 0004 03                      		nop
 1072 0005 7E BA                   		pop	r10
 1073 0007 7F 95                   		rte
 1074                             	.LFE62:
 1076                             		.section	.text.INT_Excep_RTC_PRD,"ax",@progbits
 1077                             		.global	_INT_Excep_RTC_PRD
 1079                             	_INT_Excep_RTC_PRD:
 1080                             	.LFB63:
 199:../generate/inthandler.c **** 
 200:../generate/inthandler.c **** /* RTC PRD*/
 201:../generate/inthandler.c **** void INT_Excep_RTC_PRD(void){ }
 1081                             		.loc 1 201 29
 1082                             		; Note: Interrupt Handler
 1083 0000 7E AA                   		push.l	r10
 1084                             	.LCFI126:
 1085 0002 EF 0A                   		mov.L	r0, r10
 1086                             	.LCFI127:
 1087                             		.loc 1 201 1
 1088 0004 03                      		nop
 1089 0005 7E BA                   		pop	r10
 1090 0007 7F 95                   		rte
 1091                             	.LFE63:
 1093                             		.section	.text.INT_Excep_AD_ADI0,"ax",@progbits
 1094                             		.global	_INT_Excep_AD_ADI0
 1096                             	_INT_Excep_AD_ADI0:
 1097                             	.LFB64:
 202:../generate/inthandler.c **** 
 203:../generate/inthandler.c **** /* AD ADI0*/
 204:../generate/inthandler.c **** void INT_Excep_AD_ADI0(void){ }
 1098                             		.loc 1 204 29
 1099                             		; Note: Interrupt Handler
 1100 0000 7E AA                   		push.l	r10
 1101                             	.LCFI128:
 1102 0002 EF 0A                   		mov.L	r0, r10
 1103                             	.LCFI129:
 1104                             		.loc 1 204 1
 1105 0004 03                      		nop
 1106 0005 7E BA                   		pop	r10
 1107 0007 7F 95                   		rte
 1108                             	.LFE64:
 1110                             		.section	.text.INT_Excep_S12AD_S12ADI0,"ax",@progbits
 1111                             		.global	_INT_Excep_S12AD_S12ADI0
 1113                             	_INT_Excep_S12AD_S12ADI0:
 1114                             	.LFB65:
 205:../generate/inthandler.c **** 
 206:../generate/inthandler.c **** /* S12AD S12ADI0*/
 207:../generate/inthandler.c **** void INT_Excep_S12AD_S12ADI0(void){ }
 1115                             		.loc 1 207 35
 1116                             		; Note: Interrupt Handler
 1117 0000 7E AA                   		push.l	r10
 1118                             	.LCFI130:
 1119 0002 EF 0A                   		mov.L	r0, r10
 1120                             	.LCFI131:
 1121                             		.loc 1 207 1
 1122 0004 03                      		nop
 1123 0005 7E BA                   		pop	r10
 1124 0007 7F 95                   		rte
 1125                             	.LFE65:
 1127                             		.section	.text.INT_Excep_ICU_GROUP0,"ax",@progbits
 1128                             		.global	_INT_Excep_ICU_GROUP0
 1130                             	_INT_Excep_ICU_GROUP0:
 1131                             	.LFB66:
 208:../generate/inthandler.c **** 
 209:../generate/inthandler.c **** /* ICU GROUP0*/
 210:../generate/inthandler.c **** void INT_Excep_ICU_GROUP0(void){ }
 1132                             		.loc 1 210 32
 1133                             		; Note: Interrupt Handler
 1134 0000 7E AA                   		push.l	r10
 1135                             	.LCFI132:
 1136 0002 EF 0A                   		mov.L	r0, r10
 1137                             	.LCFI133:
 1138                             		.loc 1 210 1
 1139 0004 03                      		nop
 1140 0005 7E BA                   		pop	r10
 1141 0007 7F 95                   		rte
 1142                             	.LFE66:
 1144                             		.section	.text.INT_Excep_ICU_GROUP1,"ax",@progbits
 1145                             		.global	_INT_Excep_ICU_GROUP1
 1147                             	_INT_Excep_ICU_GROUP1:
 1148                             	.LFB67:
 211:../generate/inthandler.c **** 
 212:../generate/inthandler.c **** /* ICU GROUP1*/
 213:../generate/inthandler.c **** void INT_Excep_ICU_GROUP1(void){ }
 1149                             		.loc 1 213 32
 1150                             		; Note: Interrupt Handler
 1151 0000 7E AA                   		push.l	r10
 1152                             	.LCFI134:
 1153 0002 EF 0A                   		mov.L	r0, r10
 1154                             	.LCFI135:
 1155                             		.loc 1 213 1
 1156 0004 03                      		nop
 1157 0005 7E BA                   		pop	r10
 1158 0007 7F 95                   		rte
 1159                             	.LFE67:
 1161                             		.section	.text.INT_Excep_ICU_GROUP2,"ax",@progbits
 1162                             		.global	_INT_Excep_ICU_GROUP2
 1164                             	_INT_Excep_ICU_GROUP2:
 1165                             	.LFB68:
 214:../generate/inthandler.c **** 
 215:../generate/inthandler.c **** /* ICU GROUP2*/
 216:../generate/inthandler.c **** void INT_Excep_ICU_GROUP2(void){ }
 1166                             		.loc 1 216 32
 1167                             		; Note: Interrupt Handler
 1168 0000 7E AA                   		push.l	r10
 1169                             	.LCFI136:
 1170 0002 EF 0A                   		mov.L	r0, r10
 1171                             	.LCFI137:
 1172                             		.loc 1 216 1
 1173 0004 03                      		nop
 1174 0005 7E BA                   		pop	r10
 1175 0007 7F 95                   		rte
 1176                             	.LFE68:
 1178                             		.section	.text.INT_Excep_ICU_GROUP3,"ax",@progbits
 1179                             		.global	_INT_Excep_ICU_GROUP3
 1181                             	_INT_Excep_ICU_GROUP3:
 1182                             	.LFB69:
 217:../generate/inthandler.c **** 
 218:../generate/inthandler.c **** /* ICU GROUP3*/
 219:../generate/inthandler.c **** void INT_Excep_ICU_GROUP3(void){ }
 1183                             		.loc 1 219 32
 1184                             		; Note: Interrupt Handler
 1185 0000 7E AA                   		push.l	r10
 1186                             	.LCFI138:
 1187 0002 EF 0A                   		mov.L	r0, r10
 1188                             	.LCFI139:
 1189                             		.loc 1 219 1
 1190 0004 03                      		nop
 1191 0005 7E BA                   		pop	r10
 1192 0007 7F 95                   		rte
 1193                             	.LFE69:
 1195                             		.section	.text.INT_Excep_ICU_GROUP4,"ax",@progbits
 1196                             		.global	_INT_Excep_ICU_GROUP4
 1198                             	_INT_Excep_ICU_GROUP4:
 1199                             	.LFB70:
 220:../generate/inthandler.c **** 
 221:../generate/inthandler.c **** /* ICU GROUP4*/
 222:../generate/inthandler.c **** void INT_Excep_ICU_GROUP4(void){ }
 1200                             		.loc 1 222 32
 1201                             		; Note: Interrupt Handler
 1202 0000 7E AA                   		push.l	r10
 1203                             	.LCFI140:
 1204 0002 EF 0A                   		mov.L	r0, r10
 1205                             	.LCFI141:
 1206                             		.loc 1 222 1
 1207 0004 03                      		nop
 1208 0005 7E BA                   		pop	r10
 1209 0007 7F 95                   		rte
 1210                             	.LFE70:
 1212                             		.section	.text.INT_Excep_ICU_GROUP5,"ax",@progbits
 1213                             		.global	_INT_Excep_ICU_GROUP5
 1215                             	_INT_Excep_ICU_GROUP5:
 1216                             	.LFB71:
 223:../generate/inthandler.c **** 
 224:../generate/inthandler.c **** /* ICU GROUP5*/
 225:../generate/inthandler.c **** void INT_Excep_ICU_GROUP5(void){ }
 1217                             		.loc 1 225 32
 1218                             		; Note: Interrupt Handler
 1219 0000 7E AA                   		push.l	r10
 1220                             	.LCFI142:
 1221 0002 EF 0A                   		mov.L	r0, r10
 1222                             	.LCFI143:
 1223                             		.loc 1 225 1
 1224 0004 03                      		nop
 1225 0005 7E BA                   		pop	r10
 1226 0007 7F 95                   		rte
 1227                             	.LFE71:
 1229                             		.section	.text.INT_Excep_ICU_GROUP6,"ax",@progbits
 1230                             		.global	_INT_Excep_ICU_GROUP6
 1232                             	_INT_Excep_ICU_GROUP6:
 1233                             	.LFB72:
 226:../generate/inthandler.c **** 
 227:../generate/inthandler.c **** /* ICU GROUP6*/
 228:../generate/inthandler.c **** void INT_Excep_ICU_GROUP6(void){ }
 1234                             		.loc 1 228 32
 1235                             		; Note: Interrupt Handler
 1236 0000 7E AA                   		push.l	r10
 1237                             	.LCFI144:
 1238 0002 EF 0A                   		mov.L	r0, r10
 1239                             	.LCFI145:
 1240                             		.loc 1 228 1
 1241 0004 03                      		nop
 1242 0005 7E BA                   		pop	r10
 1243 0007 7F 95                   		rte
 1244                             	.LFE72:
 1246                             		.section	.text.INT_Excep_ICU_GROUP12,"ax",@progbits
 1247                             		.global	_INT_Excep_ICU_GROUP12
 1249                             	_INT_Excep_ICU_GROUP12:
 1250                             	.LFB73:
 229:../generate/inthandler.c **** 
 230:../generate/inthandler.c **** /* ICU GROUP12*/
 231:../generate/inthandler.c **** void INT_Excep_ICU_GROUP12(void){ }
 1251                             		.loc 1 231 33
 1252                             		; Note: Interrupt Handler
 1253 0000 7E AA                   		push.l	r10
 1254                             	.LCFI146:
 1255 0002 EF 0A                   		mov.L	r0, r10
 1256                             	.LCFI147:
 1257                             		.loc 1 231 1
 1258 0004 03                      		nop
 1259 0005 7E BA                   		pop	r10
 1260 0007 7F 95                   		rte
 1261                             	.LFE73:
 1263                             		.section	.text.INT_Excep_SCI12_SCIX0,"ax",@progbits
 1264                             		.global	_INT_Excep_SCI12_SCIX0
 1266                             	_INT_Excep_SCI12_SCIX0:
 1267                             	.LFB74:
 232:../generate/inthandler.c **** 
 233:../generate/inthandler.c **** /* SCI12 SCIX0*/
 234:../generate/inthandler.c **** void INT_Excep_SCI12_SCIX0(void){ }
 1268                             		.loc 1 234 33
 1269                             		; Note: Interrupt Handler
 1270 0000 7E AA                   		push.l	r10
 1271                             	.LCFI148:
 1272 0002 EF 0A                   		mov.L	r0, r10
 1273                             	.LCFI149:
 1274                             		.loc 1 234 1
 1275 0004 03                      		nop
 1276 0005 7E BA                   		pop	r10
 1277 0007 7F 95                   		rte
 1278                             	.LFE74:
 1280                             		.section	.text.INT_Excep_SCI12_SCIX1,"ax",@progbits
 1281                             		.global	_INT_Excep_SCI12_SCIX1
 1283                             	_INT_Excep_SCI12_SCIX1:
 1284                             	.LFB75:
 235:../generate/inthandler.c **** 
 236:../generate/inthandler.c **** /* SCI12 SCIX1*/
 237:../generate/inthandler.c **** void INT_Excep_SCI12_SCIX1(void){ }
 1285                             		.loc 1 237 33
 1286                             		; Note: Interrupt Handler
 1287 0000 7E AA                   		push.l	r10
 1288                             	.LCFI150:
 1289 0002 EF 0A                   		mov.L	r0, r10
 1290                             	.LCFI151:
 1291                             		.loc 1 237 1
 1292 0004 03                      		nop
 1293 0005 7E BA                   		pop	r10
 1294 0007 7F 95                   		rte
 1295                             	.LFE75:
 1297                             		.section	.text.INT_Excep_SCI12_SCIX2,"ax",@progbits
 1298                             		.global	_INT_Excep_SCI12_SCIX2
 1300                             	_INT_Excep_SCI12_SCIX2:
 1301                             	.LFB76:
 238:../generate/inthandler.c **** 
 239:../generate/inthandler.c **** /* SCI12 SCIX2*/
 240:../generate/inthandler.c **** void INT_Excep_SCI12_SCIX2(void){ }
 1302                             		.loc 1 240 33
 1303                             		; Note: Interrupt Handler
 1304 0000 7E AA                   		push.l	r10
 1305                             	.LCFI152:
 1306 0002 EF 0A                   		mov.L	r0, r10
 1307                             	.LCFI153:
 1308                             		.loc 1 240 1
 1309 0004 03                      		nop
 1310 0005 7E BA                   		pop	r10
 1311 0007 7F 95                   		rte
 1312                             	.LFE76:
 1314                             		.section	.text.INT_Excep_SCI12_SCIX3,"ax",@progbits
 1315                             		.global	_INT_Excep_SCI12_SCIX3
 1317                             	_INT_Excep_SCI12_SCIX3:
 1318                             	.LFB77:
 241:../generate/inthandler.c **** 
 242:../generate/inthandler.c **** /* SCI12 SCIX3*/
 243:../generate/inthandler.c **** void INT_Excep_SCI12_SCIX3(void){ }
 1319                             		.loc 1 243 33
 1320                             		; Note: Interrupt Handler
 1321 0000 7E AA                   		push.l	r10
 1322                             	.LCFI154:
 1323 0002 EF 0A                   		mov.L	r0, r10
 1324                             	.LCFI155:
 1325                             		.loc 1 243 1
 1326 0004 03                      		nop
 1327 0005 7E BA                   		pop	r10
 1328 0007 7F 95                   		rte
 1329                             	.LFE77:
 1331                             		.section	.text.INT_Excep_TPU0_TGI0A,"ax",@progbits
 1332                             		.global	_INT_Excep_TPU0_TGI0A
 1334                             	_INT_Excep_TPU0_TGI0A:
 1335                             	.LFB78:
 244:../generate/inthandler.c **** 
 245:../generate/inthandler.c **** /* TPU0 TGI0A*/
 246:../generate/inthandler.c **** void INT_Excep_TPU0_TGI0A(void){ }
 1336                             		.loc 1 246 32
 1337                             		; Note: Interrupt Handler
 1338 0000 7E AA                   		push.l	r10
 1339                             	.LCFI156:
 1340 0002 EF 0A                   		mov.L	r0, r10
 1341                             	.LCFI157:
 1342                             		.loc 1 246 1
 1343 0004 03                      		nop
 1344 0005 7E BA                   		pop	r10
 1345 0007 7F 95                   		rte
 1346                             	.LFE78:
 1348                             		.section	.text.INT_Excep_TPU0_TGI0B,"ax",@progbits
 1349                             		.global	_INT_Excep_TPU0_TGI0B
 1351                             	_INT_Excep_TPU0_TGI0B:
 1352                             	.LFB79:
 247:../generate/inthandler.c **** 
 248:../generate/inthandler.c **** /* TPU0 TGI0B*/
 249:../generate/inthandler.c **** void INT_Excep_TPU0_TGI0B(void){ }
 1353                             		.loc 1 249 32
 1354                             		; Note: Interrupt Handler
 1355 0000 7E AA                   		push.l	r10
 1356                             	.LCFI158:
 1357 0002 EF 0A                   		mov.L	r0, r10
 1358                             	.LCFI159:
 1359                             		.loc 1 249 1
 1360 0004 03                      		nop
 1361 0005 7E BA                   		pop	r10
 1362 0007 7F 95                   		rte
 1363                             	.LFE79:
 1365                             		.section	.text.INT_Excep_TPU0_TGI0C,"ax",@progbits
 1366                             		.global	_INT_Excep_TPU0_TGI0C
 1368                             	_INT_Excep_TPU0_TGI0C:
 1369                             	.LFB80:
 250:../generate/inthandler.c **** 
 251:../generate/inthandler.c **** /* TPU0 TGI0C*/
 252:../generate/inthandler.c **** void INT_Excep_TPU0_TGI0C(void){ }
 1370                             		.loc 1 252 32
 1371                             		; Note: Interrupt Handler
 1372 0000 7E AA                   		push.l	r10
 1373                             	.LCFI160:
 1374 0002 EF 0A                   		mov.L	r0, r10
 1375                             	.LCFI161:
 1376                             		.loc 1 252 1
 1377 0004 03                      		nop
 1378 0005 7E BA                   		pop	r10
 1379 0007 7F 95                   		rte
 1380                             	.LFE80:
 1382                             		.section	.text.INT_Excep_TPU0_TGI0D,"ax",@progbits
 1383                             		.global	_INT_Excep_TPU0_TGI0D
 1385                             	_INT_Excep_TPU0_TGI0D:
 1386                             	.LFB81:
 253:../generate/inthandler.c **** 
 254:../generate/inthandler.c **** /* TPU0 TGI0D*/
 255:../generate/inthandler.c **** void INT_Excep_TPU0_TGI0D(void){ }
 1387                             		.loc 1 255 32
 1388                             		; Note: Interrupt Handler
 1389 0000 7E AA                   		push.l	r10
 1390                             	.LCFI162:
 1391 0002 EF 0A                   		mov.L	r0, r10
 1392                             	.LCFI163:
 1393                             		.loc 1 255 1
 1394 0004 03                      		nop
 1395 0005 7E BA                   		pop	r10
 1396 0007 7F 95                   		rte
 1397                             	.LFE81:
 1399                             		.section	.text.INT_Excep_TPU1_TGI1A,"ax",@progbits
 1400                             		.global	_INT_Excep_TPU1_TGI1A
 1402                             	_INT_Excep_TPU1_TGI1A:
 1403                             	.LFB82:
 256:../generate/inthandler.c **** 
 257:../generate/inthandler.c **** /* TPU1 TGI1A*/
 258:../generate/inthandler.c **** void INT_Excep_TPU1_TGI1A(void){ }
 1404                             		.loc 1 258 32
 1405                             		; Note: Interrupt Handler
 1406 0000 7E AA                   		push.l	r10
 1407                             	.LCFI164:
 1408 0002 EF 0A                   		mov.L	r0, r10
 1409                             	.LCFI165:
 1410                             		.loc 1 258 1
 1411 0004 03                      		nop
 1412 0005 7E BA                   		pop	r10
 1413 0007 7F 95                   		rte
 1414                             	.LFE82:
 1416                             		.section	.text.INT_Excep_TPU1_TGI1B,"ax",@progbits
 1417                             		.global	_INT_Excep_TPU1_TGI1B
 1419                             	_INT_Excep_TPU1_TGI1B:
 1420                             	.LFB83:
 259:../generate/inthandler.c **** 
 260:../generate/inthandler.c **** /* TPU1 TGI1B*/
 261:../generate/inthandler.c **** void INT_Excep_TPU1_TGI1B(void){ }
 1421                             		.loc 1 261 32
 1422                             		; Note: Interrupt Handler
 1423 0000 7E AA                   		push.l	r10
 1424                             	.LCFI166:
 1425 0002 EF 0A                   		mov.L	r0, r10
 1426                             	.LCFI167:
 1427                             		.loc 1 261 1
 1428 0004 03                      		nop
 1429 0005 7E BA                   		pop	r10
 1430 0007 7F 95                   		rte
 1431                             	.LFE83:
 1433                             		.section	.text.INT_Excep_TPU2_TGI2A,"ax",@progbits
 1434                             		.global	_INT_Excep_TPU2_TGI2A
 1436                             	_INT_Excep_TPU2_TGI2A:
 1437                             	.LFB84:
 262:../generate/inthandler.c **** 
 263:../generate/inthandler.c **** /* TPU2 TGI2A*/
 264:../generate/inthandler.c **** void INT_Excep_TPU2_TGI2A(void){ }
 1438                             		.loc 1 264 32
 1439                             		; Note: Interrupt Handler
 1440 0000 7E AA                   		push.l	r10
 1441                             	.LCFI168:
 1442 0002 EF 0A                   		mov.L	r0, r10
 1443                             	.LCFI169:
 1444                             		.loc 1 264 1
 1445 0004 03                      		nop
 1446 0005 7E BA                   		pop	r10
 1447 0007 7F 95                   		rte
 1448                             	.LFE84:
 1450                             		.section	.text.INT_Excep_TPU2_TGI2B,"ax",@progbits
 1451                             		.global	_INT_Excep_TPU2_TGI2B
 1453                             	_INT_Excep_TPU2_TGI2B:
 1454                             	.LFB85:
 265:../generate/inthandler.c **** 
 266:../generate/inthandler.c **** /* TPU2 TGI2B*/
 267:../generate/inthandler.c **** void INT_Excep_TPU2_TGI2B(void){ }
 1455                             		.loc 1 267 32
 1456                             		; Note: Interrupt Handler
 1457 0000 7E AA                   		push.l	r10
 1458                             	.LCFI170:
 1459 0002 EF 0A                   		mov.L	r0, r10
 1460                             	.LCFI171:
 1461                             		.loc 1 267 1
 1462 0004 03                      		nop
 1463 0005 7E BA                   		pop	r10
 1464 0007 7F 95                   		rte
 1465                             	.LFE85:
 1467                             		.section	.text.INT_Excep_TPU3_TGI3A,"ax",@progbits
 1468                             		.global	_INT_Excep_TPU3_TGI3A
 1470                             	_INT_Excep_TPU3_TGI3A:
 1471                             	.LFB86:
 268:../generate/inthandler.c **** 
 269:../generate/inthandler.c **** /* TPU3 TGI3A*/
 270:../generate/inthandler.c **** void INT_Excep_TPU3_TGI3A(void){ }
 1472                             		.loc 1 270 32
 1473                             		; Note: Interrupt Handler
 1474 0000 7E AA                   		push.l	r10
 1475                             	.LCFI172:
 1476 0002 EF 0A                   		mov.L	r0, r10
 1477                             	.LCFI173:
 1478                             		.loc 1 270 1
 1479 0004 03                      		nop
 1480 0005 7E BA                   		pop	r10
 1481 0007 7F 95                   		rte
 1482                             	.LFE86:
 1484                             		.section	.text.INT_Excep_TPU3_TGI3B,"ax",@progbits
 1485                             		.global	_INT_Excep_TPU3_TGI3B
 1487                             	_INT_Excep_TPU3_TGI3B:
 1488                             	.LFB87:
 271:../generate/inthandler.c **** 
 272:../generate/inthandler.c **** /* TPU3 TGI3B*/
 273:../generate/inthandler.c **** void INT_Excep_TPU3_TGI3B(void){ }
 1489                             		.loc 1 273 32
 1490                             		; Note: Interrupt Handler
 1491 0000 7E AA                   		push.l	r10
 1492                             	.LCFI174:
 1493 0002 EF 0A                   		mov.L	r0, r10
 1494                             	.LCFI175:
 1495                             		.loc 1 273 1
 1496 0004 03                      		nop
 1497 0005 7E BA                   		pop	r10
 1498 0007 7F 95                   		rte
 1499                             	.LFE87:
 1501                             		.section	.text.INT_Excep_TPU3_TGI3C,"ax",@progbits
 1502                             		.global	_INT_Excep_TPU3_TGI3C
 1504                             	_INT_Excep_TPU3_TGI3C:
 1505                             	.LFB88:
 274:../generate/inthandler.c **** 
 275:../generate/inthandler.c **** /* TPU3 TGI3C*/
 276:../generate/inthandler.c **** void INT_Excep_TPU3_TGI3C(void){ }
 1506                             		.loc 1 276 32
 1507                             		; Note: Interrupt Handler
 1508 0000 7E AA                   		push.l	r10
 1509                             	.LCFI176:
 1510 0002 EF 0A                   		mov.L	r0, r10
 1511                             	.LCFI177:
 1512                             		.loc 1 276 1
 1513 0004 03                      		nop
 1514 0005 7E BA                   		pop	r10
 1515 0007 7F 95                   		rte
 1516                             	.LFE88:
 1518                             		.section	.text.INT_Excep_TPU3_TGI3D,"ax",@progbits
 1519                             		.global	_INT_Excep_TPU3_TGI3D
 1521                             	_INT_Excep_TPU3_TGI3D:
 1522                             	.LFB89:
 277:../generate/inthandler.c **** 
 278:../generate/inthandler.c **** /* TPU3 TGI3D*/
 279:../generate/inthandler.c **** void INT_Excep_TPU3_TGI3D(void){ }
 1523                             		.loc 1 279 32
 1524                             		; Note: Interrupt Handler
 1525 0000 7E AA                   		push.l	r10
 1526                             	.LCFI178:
 1527 0002 EF 0A                   		mov.L	r0, r10
 1528                             	.LCFI179:
 1529                             		.loc 1 279 1
 1530 0004 03                      		nop
 1531 0005 7E BA                   		pop	r10
 1532 0007 7F 95                   		rte
 1533                             	.LFE89:
 1535                             		.section	.text.INT_Excep_TPU4_TGI4A,"ax",@progbits
 1536                             		.global	_INT_Excep_TPU4_TGI4A
 1538                             	_INT_Excep_TPU4_TGI4A:
 1539                             	.LFB90:
 280:../generate/inthandler.c **** 
 281:../generate/inthandler.c **** /* TPU4 TGI4A*/
 282:../generate/inthandler.c **** void INT_Excep_TPU4_TGI4A(void){ }
 1540                             		.loc 1 282 32
 1541                             		; Note: Interrupt Handler
 1542 0000 7E AA                   		push.l	r10
 1543                             	.LCFI180:
 1544 0002 EF 0A                   		mov.L	r0, r10
 1545                             	.LCFI181:
 1546                             		.loc 1 282 1
 1547 0004 03                      		nop
 1548 0005 7E BA                   		pop	r10
 1549 0007 7F 95                   		rte
 1550                             	.LFE90:
 1552                             		.section	.text.INT_Excep_TPU4_TGI4B,"ax",@progbits
 1553                             		.global	_INT_Excep_TPU4_TGI4B
 1555                             	_INT_Excep_TPU4_TGI4B:
 1556                             	.LFB91:
 283:../generate/inthandler.c **** 
 284:../generate/inthandler.c **** /* TPU4 TGI4B*/
 285:../generate/inthandler.c **** void INT_Excep_TPU4_TGI4B(void){ }
 1557                             		.loc 1 285 32
 1558                             		; Note: Interrupt Handler
 1559 0000 7E AA                   		push.l	r10
 1560                             	.LCFI182:
 1561 0002 EF 0A                   		mov.L	r0, r10
 1562                             	.LCFI183:
 1563                             		.loc 1 285 1
 1564 0004 03                      		nop
 1565 0005 7E BA                   		pop	r10
 1566 0007 7F 95                   		rte
 1567                             	.LFE91:
 1569                             		.section	.text.INT_Excep_TPU5_TGI5A,"ax",@progbits
 1570                             		.global	_INT_Excep_TPU5_TGI5A
 1572                             	_INT_Excep_TPU5_TGI5A:
 1573                             	.LFB92:
 286:../generate/inthandler.c **** 
 287:../generate/inthandler.c **** /* TPU5 TGI5A*/
 288:../generate/inthandler.c **** void INT_Excep_TPU5_TGI5A(void){ }
 1574                             		.loc 1 288 32
 1575                             		; Note: Interrupt Handler
 1576 0000 7E AA                   		push.l	r10
 1577                             	.LCFI184:
 1578 0002 EF 0A                   		mov.L	r0, r10
 1579                             	.LCFI185:
 1580                             		.loc 1 288 1
 1581 0004 03                      		nop
 1582 0005 7E BA                   		pop	r10
 1583 0007 7F 95                   		rte
 1584                             	.LFE92:
 1586                             		.section	.text.INT_Excep_TPU5_TGI5B,"ax",@progbits
 1587                             		.global	_INT_Excep_TPU5_TGI5B
 1589                             	_INT_Excep_TPU5_TGI5B:
 1590                             	.LFB93:
 289:../generate/inthandler.c **** 
 290:../generate/inthandler.c **** /* TPU5 TGI5B*/
 291:../generate/inthandler.c **** void INT_Excep_TPU5_TGI5B(void){ }
 1591                             		.loc 1 291 32
 1592                             		; Note: Interrupt Handler
 1593 0000 7E AA                   		push.l	r10
 1594                             	.LCFI186:
 1595 0002 EF 0A                   		mov.L	r0, r10
 1596                             	.LCFI187:
 1597                             		.loc 1 291 1
 1598 0004 03                      		nop
 1599 0005 7E BA                   		pop	r10
 1600 0007 7F 95                   		rte
 1601                             	.LFE93:
 1603                             		.section	.text.INT_Excep_TPU6_TGI6A,"ax",@progbits
 1604                             		.global	_INT_Excep_TPU6_TGI6A
 1606                             	_INT_Excep_TPU6_TGI6A:
 1607                             	.LFB94:
 292:../generate/inthandler.c **** 
 293:../generate/inthandler.c **** /* TPU6 TGI6A*/
 294:../generate/inthandler.c **** void INT_Excep_TPU6_TGI6A(void){ }
 1608                             		.loc 1 294 32
 1609                             		; Note: Interrupt Handler
 1610 0000 7E AA                   		push.l	r10
 1611                             	.LCFI188:
 1612 0002 EF 0A                   		mov.L	r0, r10
 1613                             	.LCFI189:
 1614                             		.loc 1 294 1
 1615 0004 03                      		nop
 1616 0005 7E BA                   		pop	r10
 1617 0007 7F 95                   		rte
 1618                             	.LFE94:
 1620                             		.section	.text.INT_Excep_TPU6_TGI6B,"ax",@progbits
 1621                             		.global	_INT_Excep_TPU6_TGI6B
 1623                             	_INT_Excep_TPU6_TGI6B:
 1624                             	.LFB95:
 295:../generate/inthandler.c **** 
 296:../generate/inthandler.c **** /* TPU6 TGI6B*/
 297:../generate/inthandler.c **** void INT_Excep_TPU6_TGI6B(void){ }
 1625                             		.loc 1 297 32
 1626                             		; Note: Interrupt Handler
 1627 0000 7E AA                   		push.l	r10
 1628                             	.LCFI190:
 1629 0002 EF 0A                   		mov.L	r0, r10
 1630                             	.LCFI191:
 1631                             		.loc 1 297 1
 1632 0004 03                      		nop
 1633 0005 7E BA                   		pop	r10
 1634 0007 7F 95                   		rte
 1635                             	.LFE95:
 1637                             		.section	.text.INT_Excep_TPU6_TGI6C,"ax",@progbits
 1638                             		.global	_INT_Excep_TPU6_TGI6C
 1640                             	_INT_Excep_TPU6_TGI6C:
 1641                             	.LFB96:
 298:../generate/inthandler.c **** 
 299:../generate/inthandler.c **** /* TPU6 TGI6C*/
 300:../generate/inthandler.c **** void INT_Excep_TPU6_TGI6C(void){ }
 1642                             		.loc 1 300 32
 1643                             		; Note: Interrupt Handler
 1644 0000 7E AA                   		push.l	r10
 1645                             	.LCFI192:
 1646 0002 EF 0A                   		mov.L	r0, r10
 1647                             	.LCFI193:
 1648                             		.loc 1 300 1
 1649 0004 03                      		nop
 1650 0005 7E BA                   		pop	r10
 1651 0007 7F 95                   		rte
 1652                             	.LFE96:
 1654                             		.section	.text.INT_Excep_TPU6_TGI6D,"ax",@progbits
 1655                             		.global	_INT_Excep_TPU6_TGI6D
 1657                             	_INT_Excep_TPU6_TGI6D:
 1658                             	.LFB97:
 301:../generate/inthandler.c **** 
 302:../generate/inthandler.c **** /* TPU6 TGI6D*/
 303:../generate/inthandler.c **** void INT_Excep_TPU6_TGI6D(void){ }
 1659                             		.loc 1 303 32
 1660                             		; Note: Interrupt Handler
 1661 0000 7E AA                   		push.l	r10
 1662                             	.LCFI194:
 1663 0002 EF 0A                   		mov.L	r0, r10
 1664                             	.LCFI195:
 1665                             		.loc 1 303 1
 1666 0004 03                      		nop
 1667 0005 7E BA                   		pop	r10
 1668 0007 7F 95                   		rte
 1669                             	.LFE97:
 1671                             		.section	.text.INT_Excep_MTU0_TGIA0,"ax",@progbits
 1672                             		.global	_INT_Excep_MTU0_TGIA0
 1674                             	_INT_Excep_MTU0_TGIA0:
 1675                             	.LFB98:
 304:../generate/inthandler.c **** 
 305:../generate/inthandler.c **** /* MTU0 TGIA0*/
 306:../generate/inthandler.c **** void INT_Excep_MTU0_TGIA0(void){ }
 1676                             		.loc 1 306 32
 1677 0000 7E AA                   		push.l	r10
 1678                             	.LCFI196:
 1679 0002 EF 0A                   		mov.L	r0, r10
 1680                             	.LCFI197:
 1681                             		.loc 1 306 1
 1682 0004 03                      		nop
 1683 0005 3F AA 01                		rtsd	#4, r10-r10
 1684                             	.LFE98:
 1686                             		.section	.text.INT_Excep_MTU0_TGIB0,"ax",@progbits
 1687                             		.global	_INT_Excep_MTU0_TGIB0
 1689                             	_INT_Excep_MTU0_TGIB0:
 1690                             	.LFB99:
 307:../generate/inthandler.c **** 
 308:../generate/inthandler.c **** /* MTU0 TGIB0*/
 309:../generate/inthandler.c **** void INT_Excep_MTU0_TGIB0(void){ }
 1691                             		.loc 1 309 32
 1692 0000 7E AA                   		push.l	r10
 1693                             	.LCFI198:
 1694 0002 EF 0A                   		mov.L	r0, r10
 1695                             	.LCFI199:
 1696                             		.loc 1 309 1
 1697 0004 03                      		nop
 1698 0005 3F AA 01                		rtsd	#4, r10-r10
 1699                             	.LFE99:
 1701                             		.section	.text.INT_Excep_MTU0_TGIC0,"ax",@progbits
 1702                             		.global	_INT_Excep_MTU0_TGIC0
 1704                             	_INT_Excep_MTU0_TGIC0:
 1705                             	.LFB100:
 310:../generate/inthandler.c **** 
 311:../generate/inthandler.c **** /* MTU0 TGIC0*/
 312:../generate/inthandler.c **** void INT_Excep_MTU0_TGIC0(void){ }
 1706                             		.loc 1 312 32
 1707 0000 7E AA                   		push.l	r10
 1708                             	.LCFI200:
 1709 0002 EF 0A                   		mov.L	r0, r10
 1710                             	.LCFI201:
 1711                             		.loc 1 312 1
 1712 0004 03                      		nop
 1713 0005 3F AA 01                		rtsd	#4, r10-r10
 1714                             	.LFE100:
 1716                             		.section	.text.INT_Excep_MTU0_TGID0,"ax",@progbits
 1717                             		.global	_INT_Excep_MTU0_TGID0
 1719                             	_INT_Excep_MTU0_TGID0:
 1720                             	.LFB101:
 313:../generate/inthandler.c **** 
 314:../generate/inthandler.c **** /* MTU0 TGID0*/
 315:../generate/inthandler.c **** void INT_Excep_MTU0_TGID0(void){ }
 1721                             		.loc 1 315 32
 1722 0000 7E AA                   		push.l	r10
 1723                             	.LCFI202:
 1724 0002 EF 0A                   		mov.L	r0, r10
 1725                             	.LCFI203:
 1726                             		.loc 1 315 1
 1727 0004 03                      		nop
 1728 0005 3F AA 01                		rtsd	#4, r10-r10
 1729                             	.LFE101:
 1731                             		.section	.text.INT_Excep_MTU0_TGIE0,"ax",@progbits
 1732                             		.global	_INT_Excep_MTU0_TGIE0
 1734                             	_INT_Excep_MTU0_TGIE0:
 1735                             	.LFB102:
 316:../generate/inthandler.c **** 
 317:../generate/inthandler.c **** /* MTU0 TGIE0*/
 318:../generate/inthandler.c **** void INT_Excep_MTU0_TGIE0(void){ }
 1736                             		.loc 1 318 32
 1737                             		; Note: Interrupt Handler
 1738 0000 7E AA                   		push.l	r10
 1739                             	.LCFI204:
 1740 0002 EF 0A                   		mov.L	r0, r10
 1741                             	.LCFI205:
 1742                             		.loc 1 318 1
 1743 0004 03                      		nop
 1744 0005 7E BA                   		pop	r10
 1745 0007 7F 95                   		rte
 1746                             	.LFE102:
 1748                             		.section	.text.INT_Excep_MTU0_TGIF0,"ax",@progbits
 1749                             		.global	_INT_Excep_MTU0_TGIF0
 1751                             	_INT_Excep_MTU0_TGIF0:
 1752                             	.LFB103:
 319:../generate/inthandler.c **** 
 320:../generate/inthandler.c **** /* MTU0 TGIF0*/
 321:../generate/inthandler.c **** void INT_Excep_MTU0_TGIF0(void){ }
 1753                             		.loc 1 321 32
 1754                             		; Note: Interrupt Handler
 1755 0000 7E AA                   		push.l	r10
 1756                             	.LCFI206:
 1757 0002 EF 0A                   		mov.L	r0, r10
 1758                             	.LCFI207:
 1759                             		.loc 1 321 1
 1760 0004 03                      		nop
 1761 0005 7E BA                   		pop	r10
 1762 0007 7F 95                   		rte
 1763                             	.LFE103:
 1765                             		.section	.text.INT_Excep_TPU7_TGI7A,"ax",@progbits
 1766                             		.global	_INT_Excep_TPU7_TGI7A
 1768                             	_INT_Excep_TPU7_TGI7A:
 1769                             	.LFB104:
 322:../generate/inthandler.c **** 
 323:../generate/inthandler.c **** /* TPU7 TGI7A*/
 324:../generate/inthandler.c **** void INT_Excep_TPU7_TGI7A(void){ }
 1770                             		.loc 1 324 32
 1771                             		; Note: Interrupt Handler
 1772 0000 7E AA                   		push.l	r10
 1773                             	.LCFI208:
 1774 0002 EF 0A                   		mov.L	r0, r10
 1775                             	.LCFI209:
 1776                             		.loc 1 324 1
 1777 0004 03                      		nop
 1778 0005 7E BA                   		pop	r10
 1779 0007 7F 95                   		rte
 1780                             	.LFE104:
 1782                             		.section	.text.INT_Excep_TPU7_TGI7B,"ax",@progbits
 1783                             		.global	_INT_Excep_TPU7_TGI7B
 1785                             	_INT_Excep_TPU7_TGI7B:
 1786                             	.LFB105:
 325:../generate/inthandler.c **** 
 326:../generate/inthandler.c **** /* TPU7 TGI7B*/
 327:../generate/inthandler.c **** void INT_Excep_TPU7_TGI7B(void){ }
 1787                             		.loc 1 327 32
 1788                             		; Note: Interrupt Handler
 1789 0000 7E AA                   		push.l	r10
 1790                             	.LCFI210:
 1791 0002 EF 0A                   		mov.L	r0, r10
 1792                             	.LCFI211:
 1793                             		.loc 1 327 1
 1794 0004 03                      		nop
 1795 0005 7E BA                   		pop	r10
 1796 0007 7F 95                   		rte
 1797                             	.LFE105:
 1799                             		.section	.text.INT_Excep_MTU1_TGIA1,"ax",@progbits
 1800                             		.global	_INT_Excep_MTU1_TGIA1
 1802                             	_INT_Excep_MTU1_TGIA1:
 1803                             	.LFB106:
 328:../generate/inthandler.c **** 
 329:../generate/inthandler.c **** /* MTU1 TGIA1*/
 330:../generate/inthandler.c **** void INT_Excep_MTU1_TGIA1(void){ }
 1804                             		.loc 1 330 32
 1805 0000 7E AA                   		push.l	r10
 1806                             	.LCFI212:
 1807 0002 EF 0A                   		mov.L	r0, r10
 1808                             	.LCFI213:
 1809                             		.loc 1 330 1
 1810 0004 03                      		nop
 1811 0005 3F AA 01                		rtsd	#4, r10-r10
 1812                             	.LFE106:
 1814                             		.section	.text.INT_Excep_MTU1_TGIB1,"ax",@progbits
 1815                             		.global	_INT_Excep_MTU1_TGIB1
 1817                             	_INT_Excep_MTU1_TGIB1:
 1818                             	.LFB107:
 331:../generate/inthandler.c **** 
 332:../generate/inthandler.c **** /* MTU1 TGIB1*/
 333:../generate/inthandler.c **** void INT_Excep_MTU1_TGIB1(void){ }
 1819                             		.loc 1 333 32
 1820 0000 7E AA                   		push.l	r10
 1821                             	.LCFI214:
 1822 0002 EF 0A                   		mov.L	r0, r10
 1823                             	.LCFI215:
 1824                             		.loc 1 333 1
 1825 0004 03                      		nop
 1826 0005 3F AA 01                		rtsd	#4, r10-r10
 1827                             	.LFE107:
 1829                             		.section	.text.INT_Excep_TPU8_TGI8A,"ax",@progbits
 1830                             		.global	_INT_Excep_TPU8_TGI8A
 1832                             	_INT_Excep_TPU8_TGI8A:
 1833                             	.LFB108:
 334:../generate/inthandler.c **** 
 335:../generate/inthandler.c **** /* TPU8 TGI8A*/
 336:../generate/inthandler.c **** void INT_Excep_TPU8_TGI8A(void){ }
 1834                             		.loc 1 336 32
 1835                             		; Note: Interrupt Handler
 1836 0000 7E AA                   		push.l	r10
 1837                             	.LCFI216:
 1838 0002 EF 0A                   		mov.L	r0, r10
 1839                             	.LCFI217:
 1840                             		.loc 1 336 1
 1841 0004 03                      		nop
 1842 0005 7E BA                   		pop	r10
 1843 0007 7F 95                   		rte
 1844                             	.LFE108:
 1846                             		.section	.text.INT_Excep_TPU8_TGI8B,"ax",@progbits
 1847                             		.global	_INT_Excep_TPU8_TGI8B
 1849                             	_INT_Excep_TPU8_TGI8B:
 1850                             	.LFB109:
 337:../generate/inthandler.c **** 
 338:../generate/inthandler.c **** /* TPU8 TGI8B*/
 339:../generate/inthandler.c **** void INT_Excep_TPU8_TGI8B(void){ }
 1851                             		.loc 1 339 32
 1852                             		; Note: Interrupt Handler
 1853 0000 7E AA                   		push.l	r10
 1854                             	.LCFI218:
 1855 0002 EF 0A                   		mov.L	r0, r10
 1856                             	.LCFI219:
 1857                             		.loc 1 339 1
 1858 0004 03                      		nop
 1859 0005 7E BA                   		pop	r10
 1860 0007 7F 95                   		rte
 1861                             	.LFE109:
 1863                             		.section	.text.INT_Excep_MTU2_TGIA2,"ax",@progbits
 1864                             		.global	_INT_Excep_MTU2_TGIA2
 1866                             	_INT_Excep_MTU2_TGIA2:
 1867                             	.LFB110:
 340:../generate/inthandler.c **** 
 341:../generate/inthandler.c **** /* MTU2 TGIA2*/
 342:../generate/inthandler.c **** void INT_Excep_MTU2_TGIA2(void){ }
 1868                             		.loc 1 342 32
 1869 0000 7E AA                   		push.l	r10
 1870                             	.LCFI220:
 1871 0002 EF 0A                   		mov.L	r0, r10
 1872                             	.LCFI221:
 1873                             		.loc 1 342 1
 1874 0004 03                      		nop
 1875 0005 3F AA 01                		rtsd	#4, r10-r10
 1876                             	.LFE110:
 1878                             		.section	.text.INT_Excep_MTU2_TGIB2,"ax",@progbits
 1879                             		.global	_INT_Excep_MTU2_TGIB2
 1881                             	_INT_Excep_MTU2_TGIB2:
 1882                             	.LFB111:
 343:../generate/inthandler.c **** 
 344:../generate/inthandler.c **** /* MTU2 TGIB2*/
 345:../generate/inthandler.c **** void INT_Excep_MTU2_TGIB2(void){ }
 1883                             		.loc 1 345 32
 1884 0000 7E AA                   		push.l	r10
 1885                             	.LCFI222:
 1886 0002 EF 0A                   		mov.L	r0, r10
 1887                             	.LCFI223:
 1888                             		.loc 1 345 1
 1889 0004 03                      		nop
 1890 0005 3F AA 01                		rtsd	#4, r10-r10
 1891                             	.LFE111:
 1893                             		.section	.text.INT_Excep_TPU9_TGI9A,"ax",@progbits
 1894                             		.global	_INT_Excep_TPU9_TGI9A
 1896                             	_INT_Excep_TPU9_TGI9A:
 1897                             	.LFB112:
 346:../generate/inthandler.c **** 
 347:../generate/inthandler.c **** /* TPU9 TGI9A*/
 348:../generate/inthandler.c **** void INT_Excep_TPU9_TGI9A(void){ }
 1898                             		.loc 1 348 32
 1899                             		; Note: Interrupt Handler
 1900 0000 7E AA                   		push.l	r10
 1901                             	.LCFI224:
 1902 0002 EF 0A                   		mov.L	r0, r10
 1903                             	.LCFI225:
 1904                             		.loc 1 348 1
 1905 0004 03                      		nop
 1906 0005 7E BA                   		pop	r10
 1907 0007 7F 95                   		rte
 1908                             	.LFE112:
 1910                             		.section	.text.INT_Excep_TPU9_TGI9B,"ax",@progbits
 1911                             		.global	_INT_Excep_TPU9_TGI9B
 1913                             	_INT_Excep_TPU9_TGI9B:
 1914                             	.LFB113:
 349:../generate/inthandler.c **** 
 350:../generate/inthandler.c **** /* TPU9 TGI9B*/
 351:../generate/inthandler.c **** void INT_Excep_TPU9_TGI9B(void){ }
 1915                             		.loc 1 351 32
 1916                             		; Note: Interrupt Handler
 1917 0000 7E AA                   		push.l	r10
 1918                             	.LCFI226:
 1919 0002 EF 0A                   		mov.L	r0, r10
 1920                             	.LCFI227:
 1921                             		.loc 1 351 1
 1922 0004 03                      		nop
 1923 0005 7E BA                   		pop	r10
 1924 0007 7F 95                   		rte
 1925                             	.LFE113:
 1927                             		.section	.text.INT_Excep_TPU9_TGI9C,"ax",@progbits
 1928                             		.global	_INT_Excep_TPU9_TGI9C
 1930                             	_INT_Excep_TPU9_TGI9C:
 1931                             	.LFB114:
 352:../generate/inthandler.c **** 
 353:../generate/inthandler.c **** /* TPU9 TGI9C*/
 354:../generate/inthandler.c **** void INT_Excep_TPU9_TGI9C(void){ }
 1932                             		.loc 1 354 32
 1933                             		; Note: Interrupt Handler
 1934 0000 7E AA                   		push.l	r10
 1935                             	.LCFI228:
 1936 0002 EF 0A                   		mov.L	r0, r10
 1937                             	.LCFI229:
 1938                             		.loc 1 354 1
 1939 0004 03                      		nop
 1940 0005 7E BA                   		pop	r10
 1941 0007 7F 95                   		rte
 1942                             	.LFE114:
 1944                             		.section	.text.INT_Excep_TPU9_TGI9D,"ax",@progbits
 1945                             		.global	_INT_Excep_TPU9_TGI9D
 1947                             	_INT_Excep_TPU9_TGI9D:
 1948                             	.LFB115:
 355:../generate/inthandler.c **** 
 356:../generate/inthandler.c **** /* TPU9 TGI9D*/
 357:../generate/inthandler.c **** void INT_Excep_TPU9_TGI9D(void){ }
 1949                             		.loc 1 357 32
 1950                             		; Note: Interrupt Handler
 1951 0000 7E AA                   		push.l	r10
 1952                             	.LCFI230:
 1953 0002 EF 0A                   		mov.L	r0, r10
 1954                             	.LCFI231:
 1955                             		.loc 1 357 1
 1956 0004 03                      		nop
 1957 0005 7E BA                   		pop	r10
 1958 0007 7F 95                   		rte
 1959                             	.LFE115:
 1961                             		.section	.text.INT_Excep_MTU3_TGIA3,"ax",@progbits
 1962                             		.global	_INT_Excep_MTU3_TGIA3
 1964                             	_INT_Excep_MTU3_TGIA3:
 1965                             	.LFB116:
 358:../generate/inthandler.c **** 
 359:../generate/inthandler.c **** /* MTU3 TGIA3*/
 360:../generate/inthandler.c **** void INT_Excep_MTU3_TGIA3(void){ }
 1966                             		.loc 1 360 32
 1967 0000 7E AA                   		push.l	r10
 1968                             	.LCFI232:
 1969 0002 EF 0A                   		mov.L	r0, r10
 1970                             	.LCFI233:
 1971                             		.loc 1 360 1
 1972 0004 03                      		nop
 1973 0005 3F AA 01                		rtsd	#4, r10-r10
 1974                             	.LFE116:
 1976                             		.section	.text.INT_Excep_MTU3_TGIB3,"ax",@progbits
 1977                             		.global	_INT_Excep_MTU3_TGIB3
 1979                             	_INT_Excep_MTU3_TGIB3:
 1980                             	.LFB117:
 361:../generate/inthandler.c **** 
 362:../generate/inthandler.c **** /* MTU3 TGIB3*/
 363:../generate/inthandler.c **** void INT_Excep_MTU3_TGIB3(void){ }
 1981                             		.loc 1 363 32
 1982 0000 7E AA                   		push.l	r10
 1983                             	.LCFI234:
 1984 0002 EF 0A                   		mov.L	r0, r10
 1985                             	.LCFI235:
 1986                             		.loc 1 363 1
 1987 0004 03                      		nop
 1988 0005 3F AA 01                		rtsd	#4, r10-r10
 1989                             	.LFE117:
 1991                             		.section	.text.INT_Excep_MTU3_TGIC3,"ax",@progbits
 1992                             		.global	_INT_Excep_MTU3_TGIC3
 1994                             	_INT_Excep_MTU3_TGIC3:
 1995                             	.LFB118:
 364:../generate/inthandler.c **** 
 365:../generate/inthandler.c **** /* MTU3 TGIC3*/
 366:../generate/inthandler.c **** void INT_Excep_MTU3_TGIC3(void){ }
 1996                             		.loc 1 366 32
 1997 0000 7E AA                   		push.l	r10
 1998                             	.LCFI236:
 1999 0002 EF 0A                   		mov.L	r0, r10
 2000                             	.LCFI237:
 2001                             		.loc 1 366 1
 2002 0004 03                      		nop
 2003 0005 3F AA 01                		rtsd	#4, r10-r10
 2004                             	.LFE118:
 2006                             		.section	.text.INT_Excep_MTU3_TGID3,"ax",@progbits
 2007                             		.global	_INT_Excep_MTU3_TGID3
 2009                             	_INT_Excep_MTU3_TGID3:
 2010                             	.LFB119:
 367:../generate/inthandler.c **** 
 368:../generate/inthandler.c **** /* MTU3 TGID3*/
 369:../generate/inthandler.c **** void INT_Excep_MTU3_TGID3(void){ }
 2011                             		.loc 1 369 32
 2012 0000 7E AA                   		push.l	r10
 2013                             	.LCFI238:
 2014 0002 EF 0A                   		mov.L	r0, r10
 2015                             	.LCFI239:
 2016                             		.loc 1 369 1
 2017 0004 03                      		nop
 2018 0005 3F AA 01                		rtsd	#4, r10-r10
 2019                             	.LFE119:
 2021                             		.section	.text.INT_Excep_TPU10_TGI10A,"ax",@progbits
 2022                             		.global	_INT_Excep_TPU10_TGI10A
 2024                             	_INT_Excep_TPU10_TGI10A:
 2025                             	.LFB120:
 370:../generate/inthandler.c **** 
 371:../generate/inthandler.c **** /* TPU10 TGI10A*/
 372:../generate/inthandler.c **** void INT_Excep_TPU10_TGI10A(void){ }
 2026                             		.loc 1 372 34
 2027                             		; Note: Interrupt Handler
 2028 0000 7E AA                   		push.l	r10
 2029                             	.LCFI240:
 2030 0002 EF 0A                   		mov.L	r0, r10
 2031                             	.LCFI241:
 2032                             		.loc 1 372 1
 2033 0004 03                      		nop
 2034 0005 7E BA                   		pop	r10
 2035 0007 7F 95                   		rte
 2036                             	.LFE120:
 2038                             		.section	.text.INT_Excep_TPU10_TGI10B,"ax",@progbits
 2039                             		.global	_INT_Excep_TPU10_TGI10B
 2041                             	_INT_Excep_TPU10_TGI10B:
 2042                             	.LFB121:
 373:../generate/inthandler.c **** 
 374:../generate/inthandler.c **** /* TPU10 TGI10B*/
 375:../generate/inthandler.c **** void INT_Excep_TPU10_TGI10B(void){ }
 2043                             		.loc 1 375 34
 2044                             		; Note: Interrupt Handler
 2045 0000 7E AA                   		push.l	r10
 2046                             	.LCFI242:
 2047 0002 EF 0A                   		mov.L	r0, r10
 2048                             	.LCFI243:
 2049                             		.loc 1 375 1
 2050 0004 03                      		nop
 2051 0005 7E BA                   		pop	r10
 2052 0007 7F 95                   		rte
 2053                             	.LFE121:
 2055                             		.section	.text.INT_Excep_MTU4_TGIA4,"ax",@progbits
 2056                             		.global	_INT_Excep_MTU4_TGIA4
 2058                             	_INT_Excep_MTU4_TGIA4:
 2059                             	.LFB122:
 376:../generate/inthandler.c **** 
 377:../generate/inthandler.c **** /* MTU4 TGIA4*/
 378:../generate/inthandler.c **** void INT_Excep_MTU4_TGIA4(void){ }
 2060                             		.loc 1 378 32
 2061 0000 7E AA                   		push.l	r10
 2062                             	.LCFI244:
 2063 0002 EF 0A                   		mov.L	r0, r10
 2064                             	.LCFI245:
 2065                             		.loc 1 378 1
 2066 0004 03                      		nop
 2067 0005 3F AA 01                		rtsd	#4, r10-r10
 2068                             	.LFE122:
 2070                             		.section	.text.INT_Excep_MTU4_TGIB4,"ax",@progbits
 2071                             		.global	_INT_Excep_MTU4_TGIB4
 2073                             	_INT_Excep_MTU4_TGIB4:
 2074                             	.LFB123:
 379:../generate/inthandler.c **** 
 380:../generate/inthandler.c **** /* MTU4 TGIB4*/
 381:../generate/inthandler.c **** void INT_Excep_MTU4_TGIB4(void){ }
 2075                             		.loc 1 381 32
 2076 0000 7E AA                   		push.l	r10
 2077                             	.LCFI246:
 2078 0002 EF 0A                   		mov.L	r0, r10
 2079                             	.LCFI247:
 2080                             		.loc 1 381 1
 2081 0004 03                      		nop
 2082 0005 3F AA 01                		rtsd	#4, r10-r10
 2083                             	.LFE123:
 2085                             		.section	.text.INT_Excep_MTU4_TGIC4,"ax",@progbits
 2086                             		.global	_INT_Excep_MTU4_TGIC4
 2088                             	_INT_Excep_MTU4_TGIC4:
 2089                             	.LFB124:
 382:../generate/inthandler.c **** 
 383:../generate/inthandler.c **** /* MTU4 TGIC4*/
 384:../generate/inthandler.c **** void INT_Excep_MTU4_TGIC4(void){ }
 2090                             		.loc 1 384 32
 2091                             		; Note: Interrupt Handler
 2092 0000 7E AA                   		push.l	r10
 2093                             	.LCFI248:
 2094 0002 EF 0A                   		mov.L	r0, r10
 2095                             	.LCFI249:
 2096                             		.loc 1 384 1
 2097 0004 03                      		nop
 2098 0005 7E BA                   		pop	r10
 2099 0007 7F 95                   		rte
 2100                             	.LFE124:
 2102                             		.section	.text.INT_Excep_MTU4_TGID4,"ax",@progbits
 2103                             		.global	_INT_Excep_MTU4_TGID4
 2105                             	_INT_Excep_MTU4_TGID4:
 2106                             	.LFB125:
 385:../generate/inthandler.c **** 
 386:../generate/inthandler.c **** /* MTU4 TGID4*/
 387:../generate/inthandler.c **** void INT_Excep_MTU4_TGID4(void){ }
 2107                             		.loc 1 387 32
 2108                             		; Note: Interrupt Handler
 2109 0000 7E AA                   		push.l	r10
 2110                             	.LCFI250:
 2111 0002 EF 0A                   		mov.L	r0, r10
 2112                             	.LCFI251:
 2113                             		.loc 1 387 1
 2114 0004 03                      		nop
 2115 0005 7E BA                   		pop	r10
 2116 0007 7F 95                   		rte
 2117                             	.LFE125:
 2119                             		.section	.text.INT_Excep_MTU4_TCIV4,"ax",@progbits
 2120                             		.global	_INT_Excep_MTU4_TCIV4
 2122                             	_INT_Excep_MTU4_TCIV4:
 2123                             	.LFB126:
 388:../generate/inthandler.c **** 
 389:../generate/inthandler.c **** /* MTU4 TCIV4*/
 390:../generate/inthandler.c **** void INT_Excep_MTU4_TCIV4(void){ }
 2124                             		.loc 1 390 32
 2125                             		; Note: Interrupt Handler
 2126 0000 7E AA                   		push.l	r10
 2127                             	.LCFI252:
 2128 0002 EF 0A                   		mov.L	r0, r10
 2129                             	.LCFI253:
 2130                             		.loc 1 390 1
 2131 0004 03                      		nop
 2132 0005 7E BA                   		pop	r10
 2133 0007 7F 95                   		rte
 2134                             	.LFE126:
 2136                             		.section	.text.INT_Excep_TPU11_TGI11A,"ax",@progbits
 2137                             		.global	_INT_Excep_TPU11_TGI11A
 2139                             	_INT_Excep_TPU11_TGI11A:
 2140                             	.LFB127:
 391:../generate/inthandler.c **** 
 392:../generate/inthandler.c **** /* TPU11 TGI11A*/
 393:../generate/inthandler.c **** void INT_Excep_TPU11_TGI11A(void){ }
 2141                             		.loc 1 393 34
 2142                             		; Note: Interrupt Handler
 2143 0000 7E AA                   		push.l	r10
 2144                             	.LCFI254:
 2145 0002 EF 0A                   		mov.L	r0, r10
 2146                             	.LCFI255:
 2147                             		.loc 1 393 1
 2148 0004 03                      		nop
 2149 0005 7E BA                   		pop	r10
 2150 0007 7F 95                   		rte
 2151                             	.LFE127:
 2153                             		.section	.text.INT_Excep_TPU11_TGI11B,"ax",@progbits
 2154                             		.global	_INT_Excep_TPU11_TGI11B
 2156                             	_INT_Excep_TPU11_TGI11B:
 2157                             	.LFB128:
 394:../generate/inthandler.c **** 
 395:../generate/inthandler.c **** /* TPU11 TGI11B*/
 396:../generate/inthandler.c **** void INT_Excep_TPU11_TGI11B(void){ }
 2158                             		.loc 1 396 34
 2159                             		; Note: Interrupt Handler
 2160 0000 7E AA                   		push.l	r10
 2161                             	.LCFI256:
 2162 0002 EF 0A                   		mov.L	r0, r10
 2163                             	.LCFI257:
 2164                             		.loc 1 396 1
 2165 0004 03                      		nop
 2166 0005 7E BA                   		pop	r10
 2167 0007 7F 95                   		rte
 2168                             	.LFE128:
 2170                             		.section	.text.INT_Excep_MTU5_TGIU5,"ax",@progbits
 2171                             		.global	_INT_Excep_MTU5_TGIU5
 2173                             	_INT_Excep_MTU5_TGIU5:
 2174                             	.LFB129:
 397:../generate/inthandler.c **** 
 398:../generate/inthandler.c **** /* MTU5 TGIU5*/
 399:../generate/inthandler.c **** void INT_Excep_MTU5_TGIU5(void){ }
 2175                             		.loc 1 399 32
 2176                             		; Note: Interrupt Handler
 2177 0000 7E AA                   		push.l	r10
 2178                             	.LCFI258:
 2179 0002 EF 0A                   		mov.L	r0, r10
 2180                             	.LCFI259:
 2181                             		.loc 1 399 1
 2182 0004 03                      		nop
 2183 0005 7E BA                   		pop	r10
 2184 0007 7F 95                   		rte
 2185                             	.LFE129:
 2187                             		.section	.text.INT_Excep_MTU5_TGIV5,"ax",@progbits
 2188                             		.global	_INT_Excep_MTU5_TGIV5
 2190                             	_INT_Excep_MTU5_TGIV5:
 2191                             	.LFB130:
 400:../generate/inthandler.c **** 
 401:../generate/inthandler.c **** /* MTU5 TGIV5*/
 402:../generate/inthandler.c **** void INT_Excep_MTU5_TGIV5(void){ }
 2192                             		.loc 1 402 32
 2193                             		; Note: Interrupt Handler
 2194 0000 7E AA                   		push.l	r10
 2195                             	.LCFI260:
 2196 0002 EF 0A                   		mov.L	r0, r10
 2197                             	.LCFI261:
 2198                             		.loc 1 402 1
 2199 0004 03                      		nop
 2200 0005 7E BA                   		pop	r10
 2201 0007 7F 95                   		rte
 2202                             	.LFE130:
 2204                             		.section	.text.INT_Excep_MTU5_TGIW5,"ax",@progbits
 2205                             		.global	_INT_Excep_MTU5_TGIW5
 2207                             	_INT_Excep_MTU5_TGIW5:
 2208                             	.LFB131:
 403:../generate/inthandler.c **** 
 404:../generate/inthandler.c **** /* MTU5 TGIW5*/
 405:../generate/inthandler.c **** void INT_Excep_MTU5_TGIW5(void){ }
 2209                             		.loc 1 405 32
 2210                             		; Note: Interrupt Handler
 2211 0000 7E AA                   		push.l	r10
 2212                             	.LCFI262:
 2213 0002 EF 0A                   		mov.L	r0, r10
 2214                             	.LCFI263:
 2215                             		.loc 1 405 1
 2216 0004 03                      		nop
 2217 0005 7E BA                   		pop	r10
 2218 0007 7F 95                   		rte
 2219                             	.LFE131:
 2221                             		.section	.text.INT_Excep_POE_OEI1,"ax",@progbits
 2222                             		.global	_INT_Excep_POE_OEI1
 2224                             	_INT_Excep_POE_OEI1:
 2225                             	.LFB132:
 406:../generate/inthandler.c **** 
 407:../generate/inthandler.c **** /* POE OEI1*/
 408:../generate/inthandler.c **** void INT_Excep_POE_OEI1(void){ }
 2226                             		.loc 1 408 30
 2227                             		; Note: Interrupt Handler
 2228 0000 7E AA                   		push.l	r10
 2229                             	.LCFI264:
 2230 0002 EF 0A                   		mov.L	r0, r10
 2231                             	.LCFI265:
 2232                             		.loc 1 408 1
 2233 0004 03                      		nop
 2234 0005 7E BA                   		pop	r10
 2235 0007 7F 95                   		rte
 2236                             	.LFE132:
 2238                             		.section	.text.INT_Excep_POE_OEI2,"ax",@progbits
 2239                             		.global	_INT_Excep_POE_OEI2
 2241                             	_INT_Excep_POE_OEI2:
 2242                             	.LFB133:
 409:../generate/inthandler.c **** 
 410:../generate/inthandler.c **** /* POE OEI2*/
 411:../generate/inthandler.c **** void INT_Excep_POE_OEI2(void){ }
 2243                             		.loc 1 411 30
 2244                             		; Note: Interrupt Handler
 2245 0000 7E AA                   		push.l	r10
 2246                             	.LCFI266:
 2247 0002 EF 0A                   		mov.L	r0, r10
 2248                             	.LCFI267:
 2249                             		.loc 1 411 1
 2250 0004 03                      		nop
 2251 0005 7E BA                   		pop	r10
 2252 0007 7F 95                   		rte
 2253                             	.LFE133:
 2255                             		.section	.text.INT_Excep_TMR0_CMIA0,"ax",@progbits
 2256                             		.global	_INT_Excep_TMR0_CMIA0
 2258                             	_INT_Excep_TMR0_CMIA0:
 2259                             	.LFB134:
 412:../generate/inthandler.c **** 
 413:../generate/inthandler.c **** /* TMR0 CMIA0*/
 414:../generate/inthandler.c **** void INT_Excep_TMR0_CMIA0(void){ }
 2260                             		.loc 1 414 32
 2261                             		; Note: Interrupt Handler
 2262 0000 7E AA                   		push.l	r10
 2263                             	.LCFI268:
 2264 0002 EF 0A                   		mov.L	r0, r10
 2265                             	.LCFI269:
 2266                             		.loc 1 414 1
 2267 0004 03                      		nop
 2268 0005 7E BA                   		pop	r10
 2269 0007 7F 95                   		rte
 2270                             	.LFE134:
 2272                             		.section	.text.INT_Excep_TMR0_CMIB0,"ax",@progbits
 2273                             		.global	_INT_Excep_TMR0_CMIB0
 2275                             	_INT_Excep_TMR0_CMIB0:
 2276                             	.LFB135:
 415:../generate/inthandler.c **** 
 416:../generate/inthandler.c **** /* TMR0 CMIB0*/
 417:../generate/inthandler.c **** void INT_Excep_TMR0_CMIB0(void){ }
 2277                             		.loc 1 417 32
 2278                             		; Note: Interrupt Handler
 2279 0000 7E AA                   		push.l	r10
 2280                             	.LCFI270:
 2281 0002 EF 0A                   		mov.L	r0, r10
 2282                             	.LCFI271:
 2283                             		.loc 1 417 1
 2284 0004 03                      		nop
 2285 0005 7E BA                   		pop	r10
 2286 0007 7F 95                   		rte
 2287                             	.LFE135:
 2289                             		.section	.text.INT_Excep_TMR0_OVI0,"ax",@progbits
 2290                             		.global	_INT_Excep_TMR0_OVI0
 2292                             	_INT_Excep_TMR0_OVI0:
 2293                             	.LFB136:
 418:../generate/inthandler.c **** 
 419:../generate/inthandler.c **** /* TMR0 OVI0*/
 420:../generate/inthandler.c **** void INT_Excep_TMR0_OVI0(void){ }
 2294                             		.loc 1 420 31
 2295                             		; Note: Interrupt Handler
 2296 0000 7E AA                   		push.l	r10
 2297                             	.LCFI272:
 2298 0002 EF 0A                   		mov.L	r0, r10
 2299                             	.LCFI273:
 2300                             		.loc 1 420 1
 2301 0004 03                      		nop
 2302 0005 7E BA                   		pop	r10
 2303 0007 7F 95                   		rte
 2304                             	.LFE136:
 2306                             		.section	.text.INT_Excep_TMR1_CMIA1,"ax",@progbits
 2307                             		.global	_INT_Excep_TMR1_CMIA1
 2309                             	_INT_Excep_TMR1_CMIA1:
 2310                             	.LFB137:
 421:../generate/inthandler.c **** 
 422:../generate/inthandler.c **** /* TMR1 CMIA1*/
 423:../generate/inthandler.c **** void INT_Excep_TMR1_CMIA1(void){ }
 2311                             		.loc 1 423 32
 2312                             		; Note: Interrupt Handler
 2313 0000 7E AA                   		push.l	r10
 2314                             	.LCFI274:
 2315 0002 EF 0A                   		mov.L	r0, r10
 2316                             	.LCFI275:
 2317                             		.loc 1 423 1
 2318 0004 03                      		nop
 2319 0005 7E BA                   		pop	r10
 2320 0007 7F 95                   		rte
 2321                             	.LFE137:
 2323                             		.section	.text.INT_Excep_TMR1_CMIB1,"ax",@progbits
 2324                             		.global	_INT_Excep_TMR1_CMIB1
 2326                             	_INT_Excep_TMR1_CMIB1:
 2327                             	.LFB138:
 424:../generate/inthandler.c **** 
 425:../generate/inthandler.c **** /* TMR1 CMIB1*/
 426:../generate/inthandler.c **** void INT_Excep_TMR1_CMIB1(void){ }
 2328                             		.loc 1 426 32
 2329                             		; Note: Interrupt Handler
 2330 0000 7E AA                   		push.l	r10
 2331                             	.LCFI276:
 2332 0002 EF 0A                   		mov.L	r0, r10
 2333                             	.LCFI277:
 2334                             		.loc 1 426 1
 2335 0004 03                      		nop
 2336 0005 7E BA                   		pop	r10
 2337 0007 7F 95                   		rte
 2338                             	.LFE138:
 2340                             		.section	.text.INT_Excep_TMR1_OVI1,"ax",@progbits
 2341                             		.global	_INT_Excep_TMR1_OVI1
 2343                             	_INT_Excep_TMR1_OVI1:
 2344                             	.LFB139:
 427:../generate/inthandler.c **** 
 428:../generate/inthandler.c **** /* TMR1 OVI1*/
 429:../generate/inthandler.c **** void INT_Excep_TMR1_OVI1(void){ }
 2345                             		.loc 1 429 31
 2346                             		; Note: Interrupt Handler
 2347 0000 7E AA                   		push.l	r10
 2348                             	.LCFI278:
 2349 0002 EF 0A                   		mov.L	r0, r10
 2350                             	.LCFI279:
 2351                             		.loc 1 429 1
 2352 0004 03                      		nop
 2353 0005 7E BA                   		pop	r10
 2354 0007 7F 95                   		rte
 2355                             	.LFE139:
 2357                             		.section	.text.INT_Excep_TMR2_CMIA2,"ax",@progbits
 2358                             		.global	_INT_Excep_TMR2_CMIA2
 2360                             	_INT_Excep_TMR2_CMIA2:
 2361                             	.LFB140:
 430:../generate/inthandler.c **** 
 431:../generate/inthandler.c **** /* TMR2 CMIA2*/
 432:../generate/inthandler.c **** void INT_Excep_TMR2_CMIA2(void){ }
 2362                             		.loc 1 432 32
 2363                             		; Note: Interrupt Handler
 2364 0000 7E AA                   		push.l	r10
 2365                             	.LCFI280:
 2366 0002 EF 0A                   		mov.L	r0, r10
 2367                             	.LCFI281:
 2368                             		.loc 1 432 1
 2369 0004 03                      		nop
 2370 0005 7E BA                   		pop	r10
 2371 0007 7F 95                   		rte
 2372                             	.LFE140:
 2374                             		.section	.text.INT_Excep_TMR2_CMIB2,"ax",@progbits
 2375                             		.global	_INT_Excep_TMR2_CMIB2
 2377                             	_INT_Excep_TMR2_CMIB2:
 2378                             	.LFB141:
 433:../generate/inthandler.c **** 
 434:../generate/inthandler.c **** /* TMR2 CMIB2*/
 435:../generate/inthandler.c **** void INT_Excep_TMR2_CMIB2(void){ }
 2379                             		.loc 1 435 32
 2380                             		; Note: Interrupt Handler
 2381 0000 7E AA                   		push.l	r10
 2382                             	.LCFI282:
 2383 0002 EF 0A                   		mov.L	r0, r10
 2384                             	.LCFI283:
 2385                             		.loc 1 435 1
 2386 0004 03                      		nop
 2387 0005 7E BA                   		pop	r10
 2388 0007 7F 95                   		rte
 2389                             	.LFE141:
 2391                             		.section	.text.INT_Excep_TMR2_OVI2,"ax",@progbits
 2392                             		.global	_INT_Excep_TMR2_OVI2
 2394                             	_INT_Excep_TMR2_OVI2:
 2395                             	.LFB142:
 436:../generate/inthandler.c **** 
 437:../generate/inthandler.c **** /* TMR2 OVI2*/
 438:../generate/inthandler.c **** void INT_Excep_TMR2_OVI2(void){ }
 2396                             		.loc 1 438 31
 2397                             		; Note: Interrupt Handler
 2398 0000 7E AA                   		push.l	r10
 2399                             	.LCFI284:
 2400 0002 EF 0A                   		mov.L	r0, r10
 2401                             	.LCFI285:
 2402                             		.loc 1 438 1
 2403 0004 03                      		nop
 2404 0005 7E BA                   		pop	r10
 2405 0007 7F 95                   		rte
 2406                             	.LFE142:
 2408                             		.section	.text.INT_Excep_TMR3_CMIA3,"ax",@progbits
 2409                             		.global	_INT_Excep_TMR3_CMIA3
 2411                             	_INT_Excep_TMR3_CMIA3:
 2412                             	.LFB143:
 439:../generate/inthandler.c **** 
 440:../generate/inthandler.c **** /* TMR3 CMIA3*/
 441:../generate/inthandler.c **** void INT_Excep_TMR3_CMIA3(void){ }
 2413                             		.loc 1 441 32
 2414                             		; Note: Interrupt Handler
 2415 0000 7E AA                   		push.l	r10
 2416                             	.LCFI286:
 2417 0002 EF 0A                   		mov.L	r0, r10
 2418                             	.LCFI287:
 2419                             		.loc 1 441 1
 2420 0004 03                      		nop
 2421 0005 7E BA                   		pop	r10
 2422 0007 7F 95                   		rte
 2423                             	.LFE143:
 2425                             		.section	.text.INT_Excep_TMR3_CMIB3,"ax",@progbits
 2426                             		.global	_INT_Excep_TMR3_CMIB3
 2428                             	_INT_Excep_TMR3_CMIB3:
 2429                             	.LFB144:
 442:../generate/inthandler.c **** 
 443:../generate/inthandler.c **** /* TMR3 CMIB3*/
 444:../generate/inthandler.c **** void INT_Excep_TMR3_CMIB3(void){ }
 2430                             		.loc 1 444 32
 2431                             		; Note: Interrupt Handler
 2432 0000 7E AA                   		push.l	r10
 2433                             	.LCFI288:
 2434 0002 EF 0A                   		mov.L	r0, r10
 2435                             	.LCFI289:
 2436                             		.loc 1 444 1
 2437 0004 03                      		nop
 2438 0005 7E BA                   		pop	r10
 2439 0007 7F 95                   		rte
 2440                             	.LFE144:
 2442                             		.section	.text.INT_Excep_TMR3_OVI3,"ax",@progbits
 2443                             		.global	_INT_Excep_TMR3_OVI3
 2445                             	_INT_Excep_TMR3_OVI3:
 2446                             	.LFB145:
 445:../generate/inthandler.c **** 
 446:../generate/inthandler.c **** /* TMR3 OVI3*/
 447:../generate/inthandler.c **** void INT_Excep_TMR3_OVI3(void){ }
 2447                             		.loc 1 447 31
 2448                             		; Note: Interrupt Handler
 2449 0000 7E AA                   		push.l	r10
 2450                             	.LCFI290:
 2451 0002 EF 0A                   		mov.L	r0, r10
 2452                             	.LCFI291:
 2453                             		.loc 1 447 1
 2454 0004 03                      		nop
 2455 0005 7E BA                   		pop	r10
 2456 0007 7F 95                   		rte
 2457                             	.LFE145:
 2459                             		.section	.text.INT_Excep_RIIC0_EEI0,"ax",@progbits
 2460                             		.global	_INT_Excep_RIIC0_EEI0
 2462                             	_INT_Excep_RIIC0_EEI0:
 2463                             	.LFB146:
 448:../generate/inthandler.c **** 
 449:../generate/inthandler.c **** /* RIIC0 EEI0*/
 450:../generate/inthandler.c **** void INT_Excep_RIIC0_EEI0(void){ }
 2464                             		.loc 1 450 32
 2465                             		; Note: Interrupt Handler
 2466 0000 7E AA                   		push.l	r10
 2467                             	.LCFI292:
 2468 0002 EF 0A                   		mov.L	r0, r10
 2469                             	.LCFI293:
 2470                             		.loc 1 450 1
 2471 0004 03                      		nop
 2472 0005 7E BA                   		pop	r10
 2473 0007 7F 95                   		rte
 2474                             	.LFE146:
 2476                             		.section	.text.INT_Excep_RIIC0_RXI0,"ax",@progbits
 2477                             		.global	_INT_Excep_RIIC0_RXI0
 2479                             	_INT_Excep_RIIC0_RXI0:
 2480                             	.LFB147:
 451:../generate/inthandler.c **** 
 452:../generate/inthandler.c **** /* RIIC0 RXI0*/
 453:../generate/inthandler.c **** void INT_Excep_RIIC0_RXI0(void){ }
 2481                             		.loc 1 453 32
 2482                             		; Note: Interrupt Handler
 2483 0000 7E AA                   		push.l	r10
 2484                             	.LCFI294:
 2485 0002 EF 0A                   		mov.L	r0, r10
 2486                             	.LCFI295:
 2487                             		.loc 1 453 1
 2488 0004 03                      		nop
 2489 0005 7E BA                   		pop	r10
 2490 0007 7F 95                   		rte
 2491                             	.LFE147:
 2493                             		.section	.text.INT_Excep_RIIC0_TXI0,"ax",@progbits
 2494                             		.global	_INT_Excep_RIIC0_TXI0
 2496                             	_INT_Excep_RIIC0_TXI0:
 2497                             	.LFB148:
 454:../generate/inthandler.c **** 
 455:../generate/inthandler.c **** /* RIIC0 TXI0*/
 456:../generate/inthandler.c **** void INT_Excep_RIIC0_TXI0(void){ }
 2498                             		.loc 1 456 32
 2499                             		; Note: Interrupt Handler
 2500 0000 7E AA                   		push.l	r10
 2501                             	.LCFI296:
 2502 0002 EF 0A                   		mov.L	r0, r10
 2503                             	.LCFI297:
 2504                             		.loc 1 456 1
 2505 0004 03                      		nop
 2506 0005 7E BA                   		pop	r10
 2507 0007 7F 95                   		rte
 2508                             	.LFE148:
 2510                             		.section	.text.INT_Excep_RIIC0_TEI0,"ax",@progbits
 2511                             		.global	_INT_Excep_RIIC0_TEI0
 2513                             	_INT_Excep_RIIC0_TEI0:
 2514                             	.LFB149:
 457:../generate/inthandler.c **** 
 458:../generate/inthandler.c **** /* RIIC0 TEI0*/
 459:../generate/inthandler.c **** void INT_Excep_RIIC0_TEI0(void){ }
 2515                             		.loc 1 459 32
 2516                             		; Note: Interrupt Handler
 2517 0000 7E AA                   		push.l	r10
 2518                             	.LCFI298:
 2519 0002 EF 0A                   		mov.L	r0, r10
 2520                             	.LCFI299:
 2521                             		.loc 1 459 1
 2522 0004 03                      		nop
 2523 0005 7E BA                   		pop	r10
 2524 0007 7F 95                   		rte
 2525                             	.LFE149:
 2527                             		.section	.text.INT_Excep_RIIC1_EEI1,"ax",@progbits
 2528                             		.global	_INT_Excep_RIIC1_EEI1
 2530                             	_INT_Excep_RIIC1_EEI1:
 2531                             	.LFB150:
 460:../generate/inthandler.c **** 
 461:../generate/inthandler.c **** /* RIIC1 EEI1*/
 462:../generate/inthandler.c **** void INT_Excep_RIIC1_EEI1(void){ }
 2532                             		.loc 1 462 32
 2533                             		; Note: Interrupt Handler
 2534 0000 7E AA                   		push.l	r10
 2535                             	.LCFI300:
 2536 0002 EF 0A                   		mov.L	r0, r10
 2537                             	.LCFI301:
 2538                             		.loc 1 462 1
 2539 0004 03                      		nop
 2540 0005 7E BA                   		pop	r10
 2541 0007 7F 95                   		rte
 2542                             	.LFE150:
 2544                             		.section	.text.INT_Excep_RIIC1_RXI1,"ax",@progbits
 2545                             		.global	_INT_Excep_RIIC1_RXI1
 2547                             	_INT_Excep_RIIC1_RXI1:
 2548                             	.LFB151:
 463:../generate/inthandler.c **** 
 464:../generate/inthandler.c **** /* RIIC1 RXI1*/
 465:../generate/inthandler.c **** void INT_Excep_RIIC1_RXI1(void){ }
 2549                             		.loc 1 465 32
 2550                             		; Note: Interrupt Handler
 2551 0000 7E AA                   		push.l	r10
 2552                             	.LCFI302:
 2553 0002 EF 0A                   		mov.L	r0, r10
 2554                             	.LCFI303:
 2555                             		.loc 1 465 1
 2556 0004 03                      		nop
 2557 0005 7E BA                   		pop	r10
 2558 0007 7F 95                   		rte
 2559                             	.LFE151:
 2561                             		.section	.text.INT_Excep_RIIC1_TXI1,"ax",@progbits
 2562                             		.global	_INT_Excep_RIIC1_TXI1
 2564                             	_INT_Excep_RIIC1_TXI1:
 2565                             	.LFB152:
 466:../generate/inthandler.c **** 
 467:../generate/inthandler.c **** /* RIIC1 TXI1*/
 468:../generate/inthandler.c **** void INT_Excep_RIIC1_TXI1(void){ }
 2566                             		.loc 1 468 32
 2567                             		; Note: Interrupt Handler
 2568 0000 7E AA                   		push.l	r10
 2569                             	.LCFI304:
 2570 0002 EF 0A                   		mov.L	r0, r10
 2571                             	.LCFI305:
 2572                             		.loc 1 468 1
 2573 0004 03                      		nop
 2574 0005 7E BA                   		pop	r10
 2575 0007 7F 95                   		rte
 2576                             	.LFE152:
 2578                             		.section	.text.INT_Excep_RIIC1_TEI1,"ax",@progbits
 2579                             		.global	_INT_Excep_RIIC1_TEI1
 2581                             	_INT_Excep_RIIC1_TEI1:
 2582                             	.LFB153:
 469:../generate/inthandler.c **** 
 470:../generate/inthandler.c **** /* RIIC1 TEI1*/
 471:../generate/inthandler.c **** void INT_Excep_RIIC1_TEI1(void){ }
 2583                             		.loc 1 471 32
 2584                             		; Note: Interrupt Handler
 2585 0000 7E AA                   		push.l	r10
 2586                             	.LCFI306:
 2587 0002 EF 0A                   		mov.L	r0, r10
 2588                             	.LCFI307:
 2589                             		.loc 1 471 1
 2590 0004 03                      		nop
 2591 0005 7E BA                   		pop	r10
 2592 0007 7F 95                   		rte
 2593                             	.LFE153:
 2595                             		.section	.text.INT_Excep_RIIC2_EEI2,"ax",@progbits
 2596                             		.global	_INT_Excep_RIIC2_EEI2
 2598                             	_INT_Excep_RIIC2_EEI2:
 2599                             	.LFB154:
 472:../generate/inthandler.c **** 
 473:../generate/inthandler.c **** /* RIIC2 EEI2*/
 474:../generate/inthandler.c **** void INT_Excep_RIIC2_EEI2(void){ }
 2600                             		.loc 1 474 32
 2601                             		; Note: Interrupt Handler
 2602 0000 7E AA                   		push.l	r10
 2603                             	.LCFI308:
 2604 0002 EF 0A                   		mov.L	r0, r10
 2605                             	.LCFI309:
 2606                             		.loc 1 474 1
 2607 0004 03                      		nop
 2608 0005 7E BA                   		pop	r10
 2609 0007 7F 95                   		rte
 2610                             	.LFE154:
 2612                             		.section	.text.INT_Excep_RIIC2_RXI2,"ax",@progbits
 2613                             		.global	_INT_Excep_RIIC2_RXI2
 2615                             	_INT_Excep_RIIC2_RXI2:
 2616                             	.LFB155:
 475:../generate/inthandler.c **** 
 476:../generate/inthandler.c **** /* RIIC2 RXI2*/
 477:../generate/inthandler.c **** void INT_Excep_RIIC2_RXI2(void){ }
 2617                             		.loc 1 477 32
 2618                             		; Note: Interrupt Handler
 2619 0000 7E AA                   		push.l	r10
 2620                             	.LCFI310:
 2621 0002 EF 0A                   		mov.L	r0, r10
 2622                             	.LCFI311:
 2623                             		.loc 1 477 1
 2624 0004 03                      		nop
 2625 0005 7E BA                   		pop	r10
 2626 0007 7F 95                   		rte
 2627                             	.LFE155:
 2629                             		.section	.text.INT_Excep_RIIC2_TXI2,"ax",@progbits
 2630                             		.global	_INT_Excep_RIIC2_TXI2
 2632                             	_INT_Excep_RIIC2_TXI2:
 2633                             	.LFB156:
 478:../generate/inthandler.c **** 
 479:../generate/inthandler.c **** /* RIIC2 TXI2*/
 480:../generate/inthandler.c **** void INT_Excep_RIIC2_TXI2(void){ }
 2634                             		.loc 1 480 32
 2635                             		; Note: Interrupt Handler
 2636 0000 7E AA                   		push.l	r10
 2637                             	.LCFI312:
 2638 0002 EF 0A                   		mov.L	r0, r10
 2639                             	.LCFI313:
 2640                             		.loc 1 480 1
 2641 0004 03                      		nop
 2642 0005 7E BA                   		pop	r10
 2643 0007 7F 95                   		rte
 2644                             	.LFE156:
 2646                             		.section	.text.INT_Excep_RIIC2_TEI2,"ax",@progbits
 2647                             		.global	_INT_Excep_RIIC2_TEI2
 2649                             	_INT_Excep_RIIC2_TEI2:
 2650                             	.LFB157:
 481:../generate/inthandler.c **** 
 482:../generate/inthandler.c **** /* RIIC2 TEI2*/
 483:../generate/inthandler.c **** void INT_Excep_RIIC2_TEI2(void){ }
 2651                             		.loc 1 483 32
 2652                             		; Note: Interrupt Handler
 2653 0000 7E AA                   		push.l	r10
 2654                             	.LCFI314:
 2655 0002 EF 0A                   		mov.L	r0, r10
 2656                             	.LCFI315:
 2657                             		.loc 1 483 1
 2658 0004 03                      		nop
 2659 0005 7E BA                   		pop	r10
 2660 0007 7F 95                   		rte
 2661                             	.LFE157:
 2663                             		.section	.text.INT_Excep_RIIC3_EEI3,"ax",@progbits
 2664                             		.global	_INT_Excep_RIIC3_EEI3
 2666                             	_INT_Excep_RIIC3_EEI3:
 2667                             	.LFB158:
 484:../generate/inthandler.c **** 
 485:../generate/inthandler.c **** /* RIIC3 EEI3*/
 486:../generate/inthandler.c **** void INT_Excep_RIIC3_EEI3(void){ }
 2668                             		.loc 1 486 32
 2669                             		; Note: Interrupt Handler
 2670 0000 7E AA                   		push.l	r10
 2671                             	.LCFI316:
 2672 0002 EF 0A                   		mov.L	r0, r10
 2673                             	.LCFI317:
 2674                             		.loc 1 486 1
 2675 0004 03                      		nop
 2676 0005 7E BA                   		pop	r10
 2677 0007 7F 95                   		rte
 2678                             	.LFE158:
 2680                             		.section	.text.INT_Excep_RIIC3_RXI3,"ax",@progbits
 2681                             		.global	_INT_Excep_RIIC3_RXI3
 2683                             	_INT_Excep_RIIC3_RXI3:
 2684                             	.LFB159:
 487:../generate/inthandler.c **** 
 488:../generate/inthandler.c **** /* RIIC3 RXI3*/
 489:../generate/inthandler.c **** void INT_Excep_RIIC3_RXI3(void){ }
 2685                             		.loc 1 489 32
 2686                             		; Note: Interrupt Handler
 2687 0000 7E AA                   		push.l	r10
 2688                             	.LCFI318:
 2689 0002 EF 0A                   		mov.L	r0, r10
 2690                             	.LCFI319:
 2691                             		.loc 1 489 1
 2692 0004 03                      		nop
 2693 0005 7E BA                   		pop	r10
 2694 0007 7F 95                   		rte
 2695                             	.LFE159:
 2697                             		.section	.text.INT_Excep_RIIC3_TXI3,"ax",@progbits
 2698                             		.global	_INT_Excep_RIIC3_TXI3
 2700                             	_INT_Excep_RIIC3_TXI3:
 2701                             	.LFB160:
 490:../generate/inthandler.c **** 
 491:../generate/inthandler.c **** /* RIIC3 TXI3*/
 492:../generate/inthandler.c **** void INT_Excep_RIIC3_TXI3(void){ }
 2702                             		.loc 1 492 32
 2703                             		; Note: Interrupt Handler
 2704 0000 7E AA                   		push.l	r10
 2705                             	.LCFI320:
 2706 0002 EF 0A                   		mov.L	r0, r10
 2707                             	.LCFI321:
 2708                             		.loc 1 492 1
 2709 0004 03                      		nop
 2710 0005 7E BA                   		pop	r10
 2711 0007 7F 95                   		rte
 2712                             	.LFE160:
 2714                             		.section	.text.INT_Excep_RIIC3_TEI3,"ax",@progbits
 2715                             		.global	_INT_Excep_RIIC3_TEI3
 2717                             	_INT_Excep_RIIC3_TEI3:
 2718                             	.LFB161:
 493:../generate/inthandler.c **** 
 494:../generate/inthandler.c **** /* RIIC3 TEI3*/
 495:../generate/inthandler.c **** void INT_Excep_RIIC3_TEI3(void){ }
 2719                             		.loc 1 495 32
 2720                             		; Note: Interrupt Handler
 2721 0000 7E AA                   		push.l	r10
 2722                             	.LCFI322:
 2723 0002 EF 0A                   		mov.L	r0, r10
 2724                             	.LCFI323:
 2725                             		.loc 1 495 1
 2726 0004 03                      		nop
 2727 0005 7E BA                   		pop	r10
 2728 0007 7F 95                   		rte
 2729                             	.LFE161:
 2731                             		.section	.text.INT_Excep_DMAC_DMAC0I,"ax",@progbits
 2732                             		.global	_INT_Excep_DMAC_DMAC0I
 2734                             	_INT_Excep_DMAC_DMAC0I:
 2735                             	.LFB162:
 496:../generate/inthandler.c **** 
 497:../generate/inthandler.c **** /* DMAC DMAC0I*/
 498:../generate/inthandler.c **** void INT_Excep_DMAC_DMAC0I(void){ }
 2736                             		.loc 1 498 33
 2737                             		; Note: Interrupt Handler
 2738 0000 7E AA                   		push.l	r10
 2739                             	.LCFI324:
 2740 0002 EF 0A                   		mov.L	r0, r10
 2741                             	.LCFI325:
 2742                             		.loc 1 498 1
 2743 0004 03                      		nop
 2744 0005 7E BA                   		pop	r10
 2745 0007 7F 95                   		rte
 2746                             	.LFE162:
 2748                             		.section	.text.INT_Excep_DMAC_DMAC1I,"ax",@progbits
 2749                             		.global	_INT_Excep_DMAC_DMAC1I
 2751                             	_INT_Excep_DMAC_DMAC1I:
 2752                             	.LFB163:
 499:../generate/inthandler.c **** 
 500:../generate/inthandler.c **** /* DMAC DMAC1I*/
 501:../generate/inthandler.c **** void INT_Excep_DMAC_DMAC1I(void){ }
 2753                             		.loc 1 501 33
 2754                             		; Note: Interrupt Handler
 2755 0000 7E AA                   		push.l	r10
 2756                             	.LCFI326:
 2757 0002 EF 0A                   		mov.L	r0, r10
 2758                             	.LCFI327:
 2759                             		.loc 1 501 1
 2760 0004 03                      		nop
 2761 0005 7E BA                   		pop	r10
 2762 0007 7F 95                   		rte
 2763                             	.LFE163:
 2765                             		.section	.text.INT_Excep_DMAC_DMAC2I,"ax",@progbits
 2766                             		.global	_INT_Excep_DMAC_DMAC2I
 2768                             	_INT_Excep_DMAC_DMAC2I:
 2769                             	.LFB164:
 502:../generate/inthandler.c **** 
 503:../generate/inthandler.c **** /* DMAC DMAC2I*/
 504:../generate/inthandler.c **** void INT_Excep_DMAC_DMAC2I(void){ }
 2770                             		.loc 1 504 33
 2771                             		; Note: Interrupt Handler
 2772 0000 7E AA                   		push.l	r10
 2773                             	.LCFI328:
 2774 0002 EF 0A                   		mov.L	r0, r10
 2775                             	.LCFI329:
 2776                             		.loc 1 504 1
 2777 0004 03                      		nop
 2778 0005 7E BA                   		pop	r10
 2779 0007 7F 95                   		rte
 2780                             	.LFE164:
 2782                             		.section	.text.INT_Excep_DMAC_DMAC3I,"ax",@progbits
 2783                             		.global	_INT_Excep_DMAC_DMAC3I
 2785                             	_INT_Excep_DMAC_DMAC3I:
 2786                             	.LFB165:
 505:../generate/inthandler.c **** 
 506:../generate/inthandler.c **** /* DMAC DMAC3I*/
 507:../generate/inthandler.c **** void INT_Excep_DMAC_DMAC3I(void){ }
 2787                             		.loc 1 507 33
 2788                             		; Note: Interrupt Handler
 2789 0000 7E AA                   		push.l	r10
 2790                             	.LCFI330:
 2791 0002 EF 0A                   		mov.L	r0, r10
 2792                             	.LCFI331:
 2793                             		.loc 1 507 1
 2794 0004 03                      		nop
 2795 0005 7E BA                   		pop	r10
 2796 0007 7F 95                   		rte
 2797                             	.LFE165:
 2799                             		.section	.text.INT_Excep_EXDMAC_EXDMAC0I,"ax",@progbits
 2800                             		.global	_INT_Excep_EXDMAC_EXDMAC0I
 2802                             	_INT_Excep_EXDMAC_EXDMAC0I:
 2803                             	.LFB166:
 508:../generate/inthandler.c **** 
 509:../generate/inthandler.c **** /* EXDMAC EXDMAC0I*/
 510:../generate/inthandler.c **** void INT_Excep_EXDMAC_EXDMAC0I(void){ }
 2804                             		.loc 1 510 37
 2805                             		; Note: Interrupt Handler
 2806 0000 7E AA                   		push.l	r10
 2807                             	.LCFI332:
 2808 0002 EF 0A                   		mov.L	r0, r10
 2809                             	.LCFI333:
 2810                             		.loc 1 510 1
 2811 0004 03                      		nop
 2812 0005 7E BA                   		pop	r10
 2813 0007 7F 95                   		rte
 2814                             	.LFE166:
 2816                             		.section	.text.INT_Excep_EXDMAC_EXDMAC1I,"ax",@progbits
 2817                             		.global	_INT_Excep_EXDMAC_EXDMAC1I
 2819                             	_INT_Excep_EXDMAC_EXDMAC1I:
 2820                             	.LFB167:
 511:../generate/inthandler.c **** 
 512:../generate/inthandler.c **** /* EXDMAC EXDMAC1I*/
 513:../generate/inthandler.c **** void INT_Excep_EXDMAC_EXDMAC1I(void){ }
 2821                             		.loc 1 513 37
 2822                             		; Note: Interrupt Handler
 2823 0000 7E AA                   		push.l	r10
 2824                             	.LCFI334:
 2825 0002 EF 0A                   		mov.L	r0, r10
 2826                             	.LCFI335:
 2827                             		.loc 1 513 1
 2828 0004 03                      		nop
 2829 0005 7E BA                   		pop	r10
 2830 0007 7F 95                   		rte
 2831                             	.LFE167:
 2833                             		.section	.text.INT_Excep_DEU_DEU0,"ax",@progbits
 2834                             		.global	_INT_Excep_DEU_DEU0
 2836                             	_INT_Excep_DEU_DEU0:
 2837                             	.LFB168:
 514:../generate/inthandler.c **** 
 515:../generate/inthandler.c **** /* DEU DEU0*/
 516:../generate/inthandler.c **** void INT_Excep_DEU_DEU0(void){ }
 2838                             		.loc 1 516 30
 2839                             		; Note: Interrupt Handler
 2840 0000 7E AA                   		push.l	r10
 2841                             	.LCFI336:
 2842 0002 EF 0A                   		mov.L	r0, r10
 2843                             	.LCFI337:
 2844                             		.loc 1 516 1
 2845 0004 03                      		nop
 2846 0005 7E BA                   		pop	r10
 2847 0007 7F 95                   		rte
 2848                             	.LFE168:
 2850                             		.section	.text.INT_Excep_DEU_DEU1,"ax",@progbits
 2851                             		.global	_INT_Excep_DEU_DEU1
 2853                             	_INT_Excep_DEU_DEU1:
 2854                             	.LFB169:
 517:../generate/inthandler.c **** 
 518:../generate/inthandler.c **** /* DEU DEU1*/
 519:../generate/inthandler.c **** void INT_Excep_DEU_DEU1(void){ }
 2855                             		.loc 1 519 30
 2856                             		; Note: Interrupt Handler
 2857 0000 7E AA                   		push.l	r10
 2858                             	.LCFI338:
 2859 0002 EF 0A                   		mov.L	r0, r10
 2860                             	.LCFI339:
 2861                             		.loc 1 519 1
 2862 0004 03                      		nop
 2863 0005 7E BA                   		pop	r10
 2864 0007 7F 95                   		rte
 2865                             	.LFE169:
 2867                             		.section	.text.INT_Excep_PDC_PCDFI,"ax",@progbits
 2868                             		.global	_INT_Excep_PDC_PCDFI
 2870                             	_INT_Excep_PDC_PCDFI:
 2871                             	.LFB170:
 520:../generate/inthandler.c **** 
 521:../generate/inthandler.c **** /* PDC PCDFI*/
 522:../generate/inthandler.c **** void INT_Excep_PDC_PCDFI(void){ }
 2872                             		.loc 1 522 31
 2873                             		; Note: Interrupt Handler
 2874 0000 7E AA                   		push.l	r10
 2875                             	.LCFI340:
 2876 0002 EF 0A                   		mov.L	r0, r10
 2877                             	.LCFI341:
 2878                             		.loc 1 522 1
 2879 0004 03                      		nop
 2880 0005 7E BA                   		pop	r10
 2881 0007 7F 95                   		rte
 2882                             	.LFE170:
 2884                             		.section	.text.INT_Excep_PDC_PCFEI,"ax",@progbits
 2885                             		.global	_INT_Excep_PDC_PCFEI
 2887                             	_INT_Excep_PDC_PCFEI:
 2888                             	.LFB171:
 523:../generate/inthandler.c **** 
 524:../generate/inthandler.c **** /* PDC PCFEI*/
 525:../generate/inthandler.c **** void INT_Excep_PDC_PCFEI(void){ }
 2889                             		.loc 1 525 31
 2890                             		; Note: Interrupt Handler
 2891 0000 7E AA                   		push.l	r10
 2892                             	.LCFI342:
 2893 0002 EF 0A                   		mov.L	r0, r10
 2894                             	.LCFI343:
 2895                             		.loc 1 525 1
 2896 0004 03                      		nop
 2897 0005 7E BA                   		pop	r10
 2898 0007 7F 95                   		rte
 2899                             	.LFE171:
 2901                             		.section	.text.INT_Excep_PDC_PCERI,"ax",@progbits
 2902                             		.global	_INT_Excep_PDC_PCERI
 2904                             	_INT_Excep_PDC_PCERI:
 2905                             	.LFB172:
 526:../generate/inthandler.c **** 
 527:../generate/inthandler.c **** /* PDC PCERI*/
 528:../generate/inthandler.c **** void INT_Excep_PDC_PCERI(void){ }
 2906                             		.loc 1 528 31
 2907                             		; Note: Interrupt Handler
 2908 0000 7E AA                   		push.l	r10
 2909                             	.LCFI344:
 2910 0002 EF 0A                   		mov.L	r0, r10
 2911                             	.LCFI345:
 2912                             		.loc 1 528 1
 2913 0004 03                      		nop
 2914 0005 7E BA                   		pop	r10
 2915 0007 7F 95                   		rte
 2916                             	.LFE172:
 2918                             		.section	.text.INT_Excep_SCI0_RXI0,"ax",@progbits
 2919                             		.global	_INT_Excep_SCI0_RXI0
 2921                             	_INT_Excep_SCI0_RXI0:
 2922                             	.LFB173:
 529:../generate/inthandler.c **** 
 530:../generate/inthandler.c **** /* SCI0 RXI0*/
 531:../generate/inthandler.c **** void INT_Excep_SCI0_RXI0(void){ }
 2923                             		.loc 1 531 31
 2924                             		; Note: Interrupt Handler
 2925 0000 7E AA                   		push.l	r10
 2926                             	.LCFI346:
 2927 0002 EF 0A                   		mov.L	r0, r10
 2928                             	.LCFI347:
 2929                             		.loc 1 531 1
 2930 0004 03                      		nop
 2931 0005 7E BA                   		pop	r10
 2932 0007 7F 95                   		rte
 2933                             	.LFE173:
 2935                             		.section	.text.INT_Excep_SCI0_TXI0,"ax",@progbits
 2936                             		.global	_INT_Excep_SCI0_TXI0
 2938                             	_INT_Excep_SCI0_TXI0:
 2939                             	.LFB174:
 532:../generate/inthandler.c **** 
 533:../generate/inthandler.c **** /* SCI0 TXI0*/
 534:../generate/inthandler.c **** void INT_Excep_SCI0_TXI0(void){ }
 2940                             		.loc 1 534 31
 2941                             		; Note: Interrupt Handler
 2942 0000 7E AA                   		push.l	r10
 2943                             	.LCFI348:
 2944 0002 EF 0A                   		mov.L	r0, r10
 2945                             	.LCFI349:
 2946                             		.loc 1 534 1
 2947 0004 03                      		nop
 2948 0005 7E BA                   		pop	r10
 2949 0007 7F 95                   		rte
 2950                             	.LFE174:
 2952                             		.section	.text.INT_Excep_SCI0_TEI0,"ax",@progbits
 2953                             		.global	_INT_Excep_SCI0_TEI0
 2955                             	_INT_Excep_SCI0_TEI0:
 2956                             	.LFB175:
 535:../generate/inthandler.c **** 
 536:../generate/inthandler.c **** /* SCI0 TEI0*/
 537:../generate/inthandler.c **** void INT_Excep_SCI0_TEI0(void){ }
 2957                             		.loc 1 537 31
 2958                             		; Note: Interrupt Handler
 2959 0000 7E AA                   		push.l	r10
 2960                             	.LCFI350:
 2961 0002 EF 0A                   		mov.L	r0, r10
 2962                             	.LCFI351:
 2963                             		.loc 1 537 1
 2964 0004 03                      		nop
 2965 0005 7E BA                   		pop	r10
 2966 0007 7F 95                   		rte
 2967                             	.LFE175:
 2969                             		.section	.text.INT_Excep_SCI1_RXI1,"ax",@progbits
 2970                             		.global	_INT_Excep_SCI1_RXI1
 2972                             	_INT_Excep_SCI1_RXI1:
 2973                             	.LFB176:
 538:../generate/inthandler.c **** 
 539:../generate/inthandler.c **** /* SCI1 RXI1*/
 540:../generate/inthandler.c **** void INT_Excep_SCI1_RXI1(void){ }
 2974                             		.loc 1 540 31
 2975                             		; Note: Interrupt Handler
 2976 0000 7E AA                   		push.l	r10
 2977                             	.LCFI352:
 2978 0002 EF 0A                   		mov.L	r0, r10
 2979                             	.LCFI353:
 2980                             		.loc 1 540 1
 2981 0004 03                      		nop
 2982 0005 7E BA                   		pop	r10
 2983 0007 7F 95                   		rte
 2984                             	.LFE176:
 2986                             		.section	.text.INT_Excep_SCI1_TXI1,"ax",@progbits
 2987                             		.global	_INT_Excep_SCI1_TXI1
 2989                             	_INT_Excep_SCI1_TXI1:
 2990                             	.LFB177:
 541:../generate/inthandler.c **** 
 542:../generate/inthandler.c **** /* SCI1 TXI1*/
 543:../generate/inthandler.c **** void INT_Excep_SCI1_TXI1(void){ }
 2991                             		.loc 1 543 31
 2992                             		; Note: Interrupt Handler
 2993 0000 7E AA                   		push.l	r10
 2994                             	.LCFI354:
 2995 0002 EF 0A                   		mov.L	r0, r10
 2996                             	.LCFI355:
 2997                             		.loc 1 543 1
 2998 0004 03                      		nop
 2999 0005 7E BA                   		pop	r10
 3000 0007 7F 95                   		rte
 3001                             	.LFE177:
 3003                             		.section	.text.INT_Excep_SCI1_TEI1,"ax",@progbits
 3004                             		.global	_INT_Excep_SCI1_TEI1
 3006                             	_INT_Excep_SCI1_TEI1:
 3007                             	.LFB178:
 544:../generate/inthandler.c **** 
 545:../generate/inthandler.c **** /* SCI1 TEI1*/
 546:../generate/inthandler.c **** void INT_Excep_SCI1_TEI1(void){ }
 3008                             		.loc 1 546 31
 3009                             		; Note: Interrupt Handler
 3010 0000 7E AA                   		push.l	r10
 3011                             	.LCFI356:
 3012 0002 EF 0A                   		mov.L	r0, r10
 3013                             	.LCFI357:
 3014                             		.loc 1 546 1
 3015 0004 03                      		nop
 3016 0005 7E BA                   		pop	r10
 3017 0007 7F 95                   		rte
 3018                             	.LFE178:
 3020                             		.section	.text.INT_Excep_SCI2_RXI2,"ax",@progbits
 3021                             		.global	_INT_Excep_SCI2_RXI2
 3023                             	_INT_Excep_SCI2_RXI2:
 3024                             	.LFB179:
 547:../generate/inthandler.c **** 
 548:../generate/inthandler.c **** /* SCI2 RXI2*/
 549:../generate/inthandler.c **** void INT_Excep_SCI2_RXI2(void){ }
 3025                             		.loc 1 549 31
 3026                             		; Note: Interrupt Handler
 3027 0000 7E AA                   		push.l	r10
 3028                             	.LCFI358:
 3029 0002 EF 0A                   		mov.L	r0, r10
 3030                             	.LCFI359:
 3031                             		.loc 1 549 1
 3032 0004 03                      		nop
 3033 0005 7E BA                   		pop	r10
 3034 0007 7F 95                   		rte
 3035                             	.LFE179:
 3037                             		.section	.text.INT_Excep_SCI2_TXI2,"ax",@progbits
 3038                             		.global	_INT_Excep_SCI2_TXI2
 3040                             	_INT_Excep_SCI2_TXI2:
 3041                             	.LFB180:
 550:../generate/inthandler.c **** 
 551:../generate/inthandler.c **** /* SCI2 TXI2*/
 552:../generate/inthandler.c **** void INT_Excep_SCI2_TXI2(void){ }
 3042                             		.loc 1 552 31
 3043                             		; Note: Interrupt Handler
 3044 0000 7E AA                   		push.l	r10
 3045                             	.LCFI360:
 3046 0002 EF 0A                   		mov.L	r0, r10
 3047                             	.LCFI361:
 3048                             		.loc 1 552 1
 3049 0004 03                      		nop
 3050 0005 7E BA                   		pop	r10
 3051 0007 7F 95                   		rte
 3052                             	.LFE180:
 3054                             		.section	.text.INT_Excep_SCI2_TEI2,"ax",@progbits
 3055                             		.global	_INT_Excep_SCI2_TEI2
 3057                             	_INT_Excep_SCI2_TEI2:
 3058                             	.LFB181:
 553:../generate/inthandler.c **** 
 554:../generate/inthandler.c **** /* SCI2 TEI2*/
 555:../generate/inthandler.c **** void INT_Excep_SCI2_TEI2(void){ }
 3059                             		.loc 1 555 31
 3060                             		; Note: Interrupt Handler
 3061 0000 7E AA                   		push.l	r10
 3062                             	.LCFI362:
 3063 0002 EF 0A                   		mov.L	r0, r10
 3064                             	.LCFI363:
 3065                             		.loc 1 555 1
 3066 0004 03                      		nop
 3067 0005 7E BA                   		pop	r10
 3068 0007 7F 95                   		rte
 3069                             	.LFE181:
 3071                             		.section	.text.INT_Excep_SCI3_RXI3,"ax",@progbits
 3072                             		.global	_INT_Excep_SCI3_RXI3
 3074                             	_INT_Excep_SCI3_RXI3:
 3075                             	.LFB182:
 556:../generate/inthandler.c **** 
 557:../generate/inthandler.c **** /* SCI3 RXI3*/
 558:../generate/inthandler.c **** void INT_Excep_SCI3_RXI3(void){ }
 3076                             		.loc 1 558 31
 3077                             		; Note: Interrupt Handler
 3078 0000 7E AA                   		push.l	r10
 3079                             	.LCFI364:
 3080 0002 EF 0A                   		mov.L	r0, r10
 3081                             	.LCFI365:
 3082                             		.loc 1 558 1
 3083 0004 03                      		nop
 3084 0005 7E BA                   		pop	r10
 3085 0007 7F 95                   		rte
 3086                             	.LFE182:
 3088                             		.section	.text.INT_Excep_SCI3_TXI3,"ax",@progbits
 3089                             		.global	_INT_Excep_SCI3_TXI3
 3091                             	_INT_Excep_SCI3_TXI3:
 3092                             	.LFB183:
 559:../generate/inthandler.c **** 
 560:../generate/inthandler.c **** /* SCI3 TXI3*/
 561:../generate/inthandler.c **** void INT_Excep_SCI3_TXI3(void){ }
 3093                             		.loc 1 561 31
 3094                             		; Note: Interrupt Handler
 3095 0000 7E AA                   		push.l	r10
 3096                             	.LCFI366:
 3097 0002 EF 0A                   		mov.L	r0, r10
 3098                             	.LCFI367:
 3099                             		.loc 1 561 1
 3100 0004 03                      		nop
 3101 0005 7E BA                   		pop	r10
 3102 0007 7F 95                   		rte
 3103                             	.LFE183:
 3105                             		.section	.text.INT_Excep_SCI3_TEI3,"ax",@progbits
 3106                             		.global	_INT_Excep_SCI3_TEI3
 3108                             	_INT_Excep_SCI3_TEI3:
 3109                             	.LFB184:
 562:../generate/inthandler.c **** 
 563:../generate/inthandler.c **** /* SCI3 TEI3*/
 564:../generate/inthandler.c **** void INT_Excep_SCI3_TEI3(void){ }
 3110                             		.loc 1 564 31
 3111                             		; Note: Interrupt Handler
 3112 0000 7E AA                   		push.l	r10
 3113                             	.LCFI368:
 3114 0002 EF 0A                   		mov.L	r0, r10
 3115                             	.LCFI369:
 3116                             		.loc 1 564 1
 3117 0004 03                      		nop
 3118 0005 7E BA                   		pop	r10
 3119 0007 7F 95                   		rte
 3120                             	.LFE184:
 3122                             		.section	.text.INT_Excep_SCI4_RXI4,"ax",@progbits
 3123                             		.global	_INT_Excep_SCI4_RXI4
 3125                             	_INT_Excep_SCI4_RXI4:
 3126                             	.LFB185:
 565:../generate/inthandler.c **** 
 566:../generate/inthandler.c **** /* SCI4 RXI4*/
 567:../generate/inthandler.c **** void INT_Excep_SCI4_RXI4(void){ }
 3127                             		.loc 1 567 31
 3128                             		; Note: Interrupt Handler
 3129 0000 7E AA                   		push.l	r10
 3130                             	.LCFI370:
 3131 0002 EF 0A                   		mov.L	r0, r10
 3132                             	.LCFI371:
 3133                             		.loc 1 567 1
 3134 0004 03                      		nop
 3135 0005 7E BA                   		pop	r10
 3136 0007 7F 95                   		rte
 3137                             	.LFE185:
 3139                             		.section	.text.INT_Excep_SCI4_TXI4,"ax",@progbits
 3140                             		.global	_INT_Excep_SCI4_TXI4
 3142                             	_INT_Excep_SCI4_TXI4:
 3143                             	.LFB186:
 568:../generate/inthandler.c **** 
 569:../generate/inthandler.c **** /* SCI4 TXI4*/
 570:../generate/inthandler.c **** void INT_Excep_SCI4_TXI4(void){ }
 3144                             		.loc 1 570 31
 3145                             		; Note: Interrupt Handler
 3146 0000 7E AA                   		push.l	r10
 3147                             	.LCFI372:
 3148 0002 EF 0A                   		mov.L	r0, r10
 3149                             	.LCFI373:
 3150                             		.loc 1 570 1
 3151 0004 03                      		nop
 3152 0005 7E BA                   		pop	r10
 3153 0007 7F 95                   		rte
 3154                             	.LFE186:
 3156                             		.section	.text.INT_Excep_SCI4_TEI4,"ax",@progbits
 3157                             		.global	_INT_Excep_SCI4_TEI4
 3159                             	_INT_Excep_SCI4_TEI4:
 3160                             	.LFB187:
 571:../generate/inthandler.c **** 
 572:../generate/inthandler.c **** /* SCI4 TEI4*/
 573:../generate/inthandler.c **** void INT_Excep_SCI4_TEI4(void){ }
 3161                             		.loc 1 573 31
 3162                             		; Note: Interrupt Handler
 3163 0000 7E AA                   		push.l	r10
 3164                             	.LCFI374:
 3165 0002 EF 0A                   		mov.L	r0, r10
 3166                             	.LCFI375:
 3167                             		.loc 1 573 1
 3168 0004 03                      		nop
 3169 0005 7E BA                   		pop	r10
 3170 0007 7F 95                   		rte
 3171                             	.LFE187:
 3173                             		.section	.text.INT_Excep_SCI5_RXI5,"ax",@progbits
 3174                             		.global	_INT_Excep_SCI5_RXI5
 3176                             	_INT_Excep_SCI5_RXI5:
 3177                             	.LFB188:
 574:../generate/inthandler.c **** 
 575:../generate/inthandler.c **** /* SCI5 RXI5*/
 576:../generate/inthandler.c **** void INT_Excep_SCI5_RXI5(void){ }
 3178                             		.loc 1 576 31
 3179                             		; Note: Interrupt Handler
 3180 0000 7E AA                   		push.l	r10
 3181                             	.LCFI376:
 3182 0002 EF 0A                   		mov.L	r0, r10
 3183                             	.LCFI377:
 3184                             		.loc 1 576 1
 3185 0004 03                      		nop
 3186 0005 7E BA                   		pop	r10
 3187 0007 7F 95                   		rte
 3188                             	.LFE188:
 3190                             		.section	.text.INT_Excep_SCI5_TXI5,"ax",@progbits
 3191                             		.global	_INT_Excep_SCI5_TXI5
 3193                             	_INT_Excep_SCI5_TXI5:
 3194                             	.LFB189:
 577:../generate/inthandler.c **** 
 578:../generate/inthandler.c **** /* SCI5 TXI5*/
 579:../generate/inthandler.c **** void INT_Excep_SCI5_TXI5(void){ }
 3195                             		.loc 1 579 31
 3196                             		; Note: Interrupt Handler
 3197 0000 7E AA                   		push.l	r10
 3198                             	.LCFI378:
 3199 0002 EF 0A                   		mov.L	r0, r10
 3200                             	.LCFI379:
 3201                             		.loc 1 579 1
 3202 0004 03                      		nop
 3203 0005 7E BA                   		pop	r10
 3204 0007 7F 95                   		rte
 3205                             	.LFE189:
 3207                             		.section	.text.INT_Excep_SCI5_TEI5,"ax",@progbits
 3208                             		.global	_INT_Excep_SCI5_TEI5
 3210                             	_INT_Excep_SCI5_TEI5:
 3211                             	.LFB190:
 580:../generate/inthandler.c **** 
 581:../generate/inthandler.c **** /* SCI5 TEI5*/
 582:../generate/inthandler.c **** void INT_Excep_SCI5_TEI5(void){ }
 3212                             		.loc 1 582 31
 3213                             		; Note: Interrupt Handler
 3214 0000 7E AA                   		push.l	r10
 3215                             	.LCFI380:
 3216 0002 EF 0A                   		mov.L	r0, r10
 3217                             	.LCFI381:
 3218                             		.loc 1 582 1
 3219 0004 03                      		nop
 3220 0005 7E BA                   		pop	r10
 3221 0007 7F 95                   		rte
 3222                             	.LFE190:
 3224                             		.section	.text.INT_Excep_SCI6_RXI6,"ax",@progbits
 3225                             		.global	_INT_Excep_SCI6_RXI6
 3227                             	_INT_Excep_SCI6_RXI6:
 3228                             	.LFB191:
 583:../generate/inthandler.c **** 
 584:../generate/inthandler.c **** /* SCI6 RXI6*/
 585:../generate/inthandler.c **** void INT_Excep_SCI6_RXI6(void){ }
 3229                             		.loc 1 585 31
 3230                             		; Note: Interrupt Handler
 3231 0000 7E AA                   		push.l	r10
 3232                             	.LCFI382:
 3233 0002 EF 0A                   		mov.L	r0, r10
 3234                             	.LCFI383:
 3235                             		.loc 1 585 1
 3236 0004 03                      		nop
 3237 0005 7E BA                   		pop	r10
 3238 0007 7F 95                   		rte
 3239                             	.LFE191:
 3241                             		.section	.text.INT_Excep_SCI6_TXI6,"ax",@progbits
 3242                             		.global	_INT_Excep_SCI6_TXI6
 3244                             	_INT_Excep_SCI6_TXI6:
 3245                             	.LFB192:
 586:../generate/inthandler.c **** 
 587:../generate/inthandler.c **** /* SCI6 TXI6*/
 588:../generate/inthandler.c **** void INT_Excep_SCI6_TXI6(void){ }
 3246                             		.loc 1 588 31
 3247                             		; Note: Interrupt Handler
 3248 0000 7E AA                   		push.l	r10
 3249                             	.LCFI384:
 3250 0002 EF 0A                   		mov.L	r0, r10
 3251                             	.LCFI385:
 3252                             		.loc 1 588 1
 3253 0004 03                      		nop
 3254 0005 7E BA                   		pop	r10
 3255 0007 7F 95                   		rte
 3256                             	.LFE192:
 3258                             		.section	.text.INT_Excep_SCI6_TEI6,"ax",@progbits
 3259                             		.global	_INT_Excep_SCI6_TEI6
 3261                             	_INT_Excep_SCI6_TEI6:
 3262                             	.LFB193:
 589:../generate/inthandler.c **** 
 590:../generate/inthandler.c **** /* SCI6 TEI6*/
 591:../generate/inthandler.c **** void INT_Excep_SCI6_TEI6(void){ }
 3263                             		.loc 1 591 31
 3264                             		; Note: Interrupt Handler
 3265 0000 7E AA                   		push.l	r10
 3266                             	.LCFI386:
 3267 0002 EF 0A                   		mov.L	r0, r10
 3268                             	.LCFI387:
 3269                             		.loc 1 591 1
 3270 0004 03                      		nop
 3271 0005 7E BA                   		pop	r10
 3272 0007 7F 95                   		rte
 3273                             	.LFE193:
 3275                             		.section	.text.INT_Excep_SCI7_RXI7,"ax",@progbits
 3276                             		.global	_INT_Excep_SCI7_RXI7
 3278                             	_INT_Excep_SCI7_RXI7:
 3279                             	.LFB194:
 592:../generate/inthandler.c **** 
 593:../generate/inthandler.c **** /* SCI7 RXI7*/
 594:../generate/inthandler.c **** void INT_Excep_SCI7_RXI7(void){ }
 3280                             		.loc 1 594 31
 3281                             		; Note: Interrupt Handler
 3282 0000 7E AA                   		push.l	r10
 3283                             	.LCFI388:
 3284 0002 EF 0A                   		mov.L	r0, r10
 3285                             	.LCFI389:
 3286                             		.loc 1 594 1
 3287 0004 03                      		nop
 3288 0005 7E BA                   		pop	r10
 3289 0007 7F 95                   		rte
 3290                             	.LFE194:
 3292                             		.section	.text.INT_Excep_SCI7_TXI7,"ax",@progbits
 3293                             		.global	_INT_Excep_SCI7_TXI7
 3295                             	_INT_Excep_SCI7_TXI7:
 3296                             	.LFB195:
 595:../generate/inthandler.c **** 
 596:../generate/inthandler.c **** /* SCI7 TXI7*/
 597:../generate/inthandler.c **** void INT_Excep_SCI7_TXI7(void){ }
 3297                             		.loc 1 597 31
 3298                             		; Note: Interrupt Handler
 3299 0000 7E AA                   		push.l	r10
 3300                             	.LCFI390:
 3301 0002 EF 0A                   		mov.L	r0, r10
 3302                             	.LCFI391:
 3303                             		.loc 1 597 1
 3304 0004 03                      		nop
 3305 0005 7E BA                   		pop	r10
 3306 0007 7F 95                   		rte
 3307                             	.LFE195:
 3309                             		.section	.text.INT_Excep_SCI7_TEI7,"ax",@progbits
 3310                             		.global	_INT_Excep_SCI7_TEI7
 3312                             	_INT_Excep_SCI7_TEI7:
 3313                             	.LFB196:
 598:../generate/inthandler.c **** 
 599:../generate/inthandler.c **** /* SCI7 TEI7*/
 600:../generate/inthandler.c **** void INT_Excep_SCI7_TEI7(void){ }
 3314                             		.loc 1 600 31
 3315                             		; Note: Interrupt Handler
 3316 0000 7E AA                   		push.l	r10
 3317                             	.LCFI392:
 3318 0002 EF 0A                   		mov.L	r0, r10
 3319                             	.LCFI393:
 3320                             		.loc 1 600 1
 3321 0004 03                      		nop
 3322 0005 7E BA                   		pop	r10
 3323 0007 7F 95                   		rte
 3324                             	.LFE196:
 3326                             		.section	.text.INT_Excep_SCI8_RXI8,"ax",@progbits
 3327                             		.global	_INT_Excep_SCI8_RXI8
 3329                             	_INT_Excep_SCI8_RXI8:
 3330                             	.LFB197:
 601:../generate/inthandler.c **** 
 602:../generate/inthandler.c **** /* SCI8 RXI8*/
 603:../generate/inthandler.c **** void INT_Excep_SCI8_RXI8(void){ }
 3331                             		.loc 1 603 31
 3332                             		; Note: Interrupt Handler
 3333 0000 7E AA                   		push.l	r10
 3334                             	.LCFI394:
 3335 0002 EF 0A                   		mov.L	r0, r10
 3336                             	.LCFI395:
 3337                             		.loc 1 603 1
 3338 0004 03                      		nop
 3339 0005 7E BA                   		pop	r10
 3340 0007 7F 95                   		rte
 3341                             	.LFE197:
 3343                             		.section	.text.INT_Excep_SCI8_TXI8,"ax",@progbits
 3344                             		.global	_INT_Excep_SCI8_TXI8
 3346                             	_INT_Excep_SCI8_TXI8:
 3347                             	.LFB198:
 604:../generate/inthandler.c **** 
 605:../generate/inthandler.c **** /* SCI8 TXI8*/
 606:../generate/inthandler.c **** void INT_Excep_SCI8_TXI8(void){ }
 3348                             		.loc 1 606 31
 3349                             		; Note: Interrupt Handler
 3350 0000 7E AA                   		push.l	r10
 3351                             	.LCFI396:
 3352 0002 EF 0A                   		mov.L	r0, r10
 3353                             	.LCFI397:
 3354                             		.loc 1 606 1
 3355 0004 03                      		nop
 3356 0005 7E BA                   		pop	r10
 3357 0007 7F 95                   		rte
 3358                             	.LFE198:
 3360                             		.section	.text.INT_Excep_SCI8_TEI8,"ax",@progbits
 3361                             		.global	_INT_Excep_SCI8_TEI8
 3363                             	_INT_Excep_SCI8_TEI8:
 3364                             	.LFB199:
 607:../generate/inthandler.c **** 
 608:../generate/inthandler.c **** /* SCI8 TEI8*/
 609:../generate/inthandler.c **** void INT_Excep_SCI8_TEI8(void){ }
 3365                             		.loc 1 609 31
 3366                             		; Note: Interrupt Handler
 3367 0000 7E AA                   		push.l	r10
 3368                             	.LCFI398:
 3369 0002 EF 0A                   		mov.L	r0, r10
 3370                             	.LCFI399:
 3371                             		.loc 1 609 1
 3372 0004 03                      		nop
 3373 0005 7E BA                   		pop	r10
 3374 0007 7F 95                   		rte
 3375                             	.LFE199:
 3377                             		.section	.text.INT_Excep_SCI9_RXI9,"ax",@progbits
 3378                             		.global	_INT_Excep_SCI9_RXI9
 3380                             	_INT_Excep_SCI9_RXI9:
 3381                             	.LFB200:
 610:../generate/inthandler.c **** 
 611:../generate/inthandler.c **** /* SCI9 RXI9*/
 612:../generate/inthandler.c **** void INT_Excep_SCI9_RXI9(void){ }
 3382                             		.loc 1 612 31
 3383                             		; Note: Interrupt Handler
 3384 0000 7E AA                   		push.l	r10
 3385                             	.LCFI400:
 3386 0002 EF 0A                   		mov.L	r0, r10
 3387                             	.LCFI401:
 3388                             		.loc 1 612 1
 3389 0004 03                      		nop
 3390 0005 7E BA                   		pop	r10
 3391 0007 7F 95                   		rte
 3392                             	.LFE200:
 3394                             		.section	.text.INT_Excep_SCI9_TXI9,"ax",@progbits
 3395                             		.global	_INT_Excep_SCI9_TXI9
 3397                             	_INT_Excep_SCI9_TXI9:
 3398                             	.LFB201:
 613:../generate/inthandler.c **** 
 614:../generate/inthandler.c **** /* SCI9 TXI9*/
 615:../generate/inthandler.c **** void INT_Excep_SCI9_TXI9(void){ }
 3399                             		.loc 1 615 31
 3400                             		; Note: Interrupt Handler
 3401 0000 7E AA                   		push.l	r10
 3402                             	.LCFI402:
 3403 0002 EF 0A                   		mov.L	r0, r10
 3404                             	.LCFI403:
 3405                             		.loc 1 615 1
 3406 0004 03                      		nop
 3407 0005 7E BA                   		pop	r10
 3408 0007 7F 95                   		rte
 3409                             	.LFE201:
 3411                             		.section	.text.INT_Excep_SCI9_TEI9,"ax",@progbits
 3412                             		.global	_INT_Excep_SCI9_TEI9
 3414                             	_INT_Excep_SCI9_TEI9:
 3415                             	.LFB202:
 616:../generate/inthandler.c **** 
 617:../generate/inthandler.c **** /* SCI9 TEI9*/
 618:../generate/inthandler.c **** void INT_Excep_SCI9_TEI9(void){ }
 3416                             		.loc 1 618 31
 3417                             		; Note: Interrupt Handler
 3418 0000 7E AA                   		push.l	r10
 3419                             	.LCFI404:
 3420 0002 EF 0A                   		mov.L	r0, r10
 3421                             	.LCFI405:
 3422                             		.loc 1 618 1
 3423 0004 03                      		nop
 3424 0005 7E BA                   		pop	r10
 3425 0007 7F 95                   		rte
 3426                             	.LFE202:
 3428                             		.section	.text.INT_Excep_SCI10_RXI10,"ax",@progbits
 3429                             		.global	_INT_Excep_SCI10_RXI10
 3431                             	_INT_Excep_SCI10_RXI10:
 3432                             	.LFB203:
 619:../generate/inthandler.c **** 
 620:../generate/inthandler.c **** /* SCI10 RXI10*/
 621:../generate/inthandler.c **** void INT_Excep_SCI10_RXI10(void){ }
 3433                             		.loc 1 621 33
 3434                             		; Note: Interrupt Handler
 3435 0000 7E AA                   		push.l	r10
 3436                             	.LCFI406:
 3437 0002 EF 0A                   		mov.L	r0, r10
 3438                             	.LCFI407:
 3439                             		.loc 1 621 1
 3440 0004 03                      		nop
 3441 0005 7E BA                   		pop	r10
 3442 0007 7F 95                   		rte
 3443                             	.LFE203:
 3445                             		.section	.text.INT_Excep_SCI10_TXI10,"ax",@progbits
 3446                             		.global	_INT_Excep_SCI10_TXI10
 3448                             	_INT_Excep_SCI10_TXI10:
 3449                             	.LFB204:
 622:../generate/inthandler.c **** 
 623:../generate/inthandler.c **** /* SCI10 TXI10*/
 624:../generate/inthandler.c **** void INT_Excep_SCI10_TXI10(void){ }
 3450                             		.loc 1 624 33
 3451                             		; Note: Interrupt Handler
 3452 0000 7E AA                   		push.l	r10
 3453                             	.LCFI408:
 3454 0002 EF 0A                   		mov.L	r0, r10
 3455                             	.LCFI409:
 3456                             		.loc 1 624 1
 3457 0004 03                      		nop
 3458 0005 7E BA                   		pop	r10
 3459 0007 7F 95                   		rte
 3460                             	.LFE204:
 3462                             		.section	.text.INT_Excep_SCI10_TEI10,"ax",@progbits
 3463                             		.global	_INT_Excep_SCI10_TEI10
 3465                             	_INT_Excep_SCI10_TEI10:
 3466                             	.LFB205:
 625:../generate/inthandler.c **** 
 626:../generate/inthandler.c **** /* SCI10 TEI10*/
 627:../generate/inthandler.c **** void INT_Excep_SCI10_TEI10(void){ }
 3467                             		.loc 1 627 33
 3468                             		; Note: Interrupt Handler
 3469 0000 7E AA                   		push.l	r10
 3470                             	.LCFI410:
 3471 0002 EF 0A                   		mov.L	r0, r10
 3472                             	.LCFI411:
 3473                             		.loc 1 627 1
 3474 0004 03                      		nop
 3475 0005 7E BA                   		pop	r10
 3476 0007 7F 95                   		rte
 3477                             	.LFE205:
 3479                             		.section	.text.INT_Excep_SCI11_RXI11,"ax",@progbits
 3480                             		.global	_INT_Excep_SCI11_RXI11
 3482                             	_INT_Excep_SCI11_RXI11:
 3483                             	.LFB206:
 628:../generate/inthandler.c **** 
 629:../generate/inthandler.c **** /* SCI11 RXI11*/
 630:../generate/inthandler.c **** void INT_Excep_SCI11_RXI11(void){ }
 3484                             		.loc 1 630 33
 3485                             		; Note: Interrupt Handler
 3486 0000 7E AA                   		push.l	r10
 3487                             	.LCFI412:
 3488 0002 EF 0A                   		mov.L	r0, r10
 3489                             	.LCFI413:
 3490                             		.loc 1 630 1
 3491 0004 03                      		nop
 3492 0005 7E BA                   		pop	r10
 3493 0007 7F 95                   		rte
 3494                             	.LFE206:
 3496                             		.section	.text.INT_Excep_SCI11_TXI11,"ax",@progbits
 3497                             		.global	_INT_Excep_SCI11_TXI11
 3499                             	_INT_Excep_SCI11_TXI11:
 3500                             	.LFB207:
 631:../generate/inthandler.c **** 
 632:../generate/inthandler.c **** /* SCI11 TXI11*/
 633:../generate/inthandler.c **** void INT_Excep_SCI11_TXI11(void){ }
 3501                             		.loc 1 633 33
 3502                             		; Note: Interrupt Handler
 3503 0000 7E AA                   		push.l	r10
 3504                             	.LCFI414:
 3505 0002 EF 0A                   		mov.L	r0, r10
 3506                             	.LCFI415:
 3507                             		.loc 1 633 1
 3508 0004 03                      		nop
 3509 0005 7E BA                   		pop	r10
 3510 0007 7F 95                   		rte
 3511                             	.LFE207:
 3513                             		.section	.text.INT_Excep_SCI11_TEI11,"ax",@progbits
 3514                             		.global	_INT_Excep_SCI11_TEI11
 3516                             	_INT_Excep_SCI11_TEI11:
 3517                             	.LFB208:
 634:../generate/inthandler.c **** 
 635:../generate/inthandler.c **** /* SCI11 TEI11*/
 636:../generate/inthandler.c **** void INT_Excep_SCI11_TEI11(void){ }
 3518                             		.loc 1 636 33
 3519                             		; Note: Interrupt Handler
 3520 0000 7E AA                   		push.l	r10
 3521                             	.LCFI416:
 3522 0002 EF 0A                   		mov.L	r0, r10
 3523                             	.LCFI417:
 3524                             		.loc 1 636 1
 3525 0004 03                      		nop
 3526 0005 7E BA                   		pop	r10
 3527 0007 7F 95                   		rte
 3528                             	.LFE208:
 3530                             		.section	.text.INT_Excep_SCI12_RXI12,"ax",@progbits
 3531                             		.global	_INT_Excep_SCI12_RXI12
 3533                             	_INT_Excep_SCI12_RXI12:
 3534                             	.LFB209:
 637:../generate/inthandler.c **** 
 638:../generate/inthandler.c **** /* SCI12 RXI12*/
 639:../generate/inthandler.c **** void INT_Excep_SCI12_RXI12(void){ }
 3535                             		.loc 1 639 33
 3536                             		; Note: Interrupt Handler
 3537 0000 7E AA                   		push.l	r10
 3538                             	.LCFI418:
 3539 0002 EF 0A                   		mov.L	r0, r10
 3540                             	.LCFI419:
 3541                             		.loc 1 639 1
 3542 0004 03                      		nop
 3543 0005 7E BA                   		pop	r10
 3544 0007 7F 95                   		rte
 3545                             	.LFE209:
 3547                             		.section	.text.INT_Excep_SCI12_TXI12,"ax",@progbits
 3548                             		.global	_INT_Excep_SCI12_TXI12
 3550                             	_INT_Excep_SCI12_TXI12:
 3551                             	.LFB210:
 640:../generate/inthandler.c **** 
 641:../generate/inthandler.c **** /* SCI12 TXI12*/
 642:../generate/inthandler.c **** void INT_Excep_SCI12_TXI12(void){ }
 3552                             		.loc 1 642 33
 3553                             		; Note: Interrupt Handler
 3554 0000 7E AA                   		push.l	r10
 3555                             	.LCFI420:
 3556 0002 EF 0A                   		mov.L	r0, r10
 3557                             	.LCFI421:
 3558                             		.loc 1 642 1
 3559 0004 03                      		nop
 3560 0005 7E BA                   		pop	r10
 3561 0007 7F 95                   		rte
 3562                             	.LFE210:
 3564                             		.section	.text.INT_Excep_SCI12_TEI12,"ax",@progbits
 3565                             		.global	_INT_Excep_SCI12_TEI12
 3567                             	_INT_Excep_SCI12_TEI12:
 3568                             	.LFB211:
 643:../generate/inthandler.c **** 
 644:../generate/inthandler.c **** /* SCI12 TEI12*/
 645:../generate/inthandler.c **** void INT_Excep_SCI12_TEI12(void){ }
 3569                             		.loc 1 645 33
 3570                             		; Note: Interrupt Handler
 3571 0000 7E AA                   		push.l	r10
 3572                             	.LCFI422:
 3573 0002 EF 0A                   		mov.L	r0, r10
 3574                             	.LCFI423:
 3575                             		.loc 1 645 1
 3576 0004 03                      		nop
 3577 0005 7E BA                   		pop	r10
 3578 0007 7F 95                   		rte
 3579                             	.LFE211:
 3581                             		.section	.text.INT_Excep_IEB_IEBINT,"ax",@progbits
 3582                             		.global	_INT_Excep_IEB_IEBINT
 3584                             	_INT_Excep_IEB_IEBINT:
 3585                             	.LFB212:
 646:../generate/inthandler.c **** 
 647:../generate/inthandler.c **** /* IEB IEBINT*/
 648:../generate/inthandler.c **** void INT_Excep_IEB_IEBINT(void){ }
 3586                             		.loc 1 648 32
 3587                             		; Note: Interrupt Handler
 3588 0000 7E AA                   		push.l	r10
 3589                             	.LCFI424:
 3590 0002 EF 0A                   		mov.L	r0, r10
 3591                             	.LCFI425:
 3592                             		.loc 1 648 1
 3593 0004 03                      		nop
 3594 0005 7E BA                   		pop	r10
 3595 0007 7F 95                   		rte
 3596                             	.LFE212:
 7450                             	.Letext0:
